(lp0
(lp1
I2
aI1
aI1
aI1
aI0
aI1
aI0
aI0
aI0
aI2
aI0
aI0
aa(lp2
I1
aI1
aI0
aI1
aI2
aI1
aI0
aI0
aI0
aI0
aI0
aI2
aa(lp3
I1
aI2
aI1
aI3
aI0
aI1
aI1
aI0
aI0
aI0
aI2
aI2
aa(lp4
I1
aI1
aI1
aI1
aI2
aI2
aI0
aI0
aI0
aI0
aI0
aI0
aa(lp5
I2
aI1
aI1
aI1
aI0
aI1
aI1
aI2
aI0
aI0
aI0
aI0
aa(lp6
I2
aI1
aI1
aI0
aI0
aI1
aI0
aI2
aI0
aI2
aI0
aI0
aa(lp7
I1
aI1
aI0
aI1
aI2
aI1
aI1
aI0
aI0
aI0
aI0
aI0
aa(lp8
I1
aI1
aI1
aI1
aI0
aI2
aI0
aI2
aI0
aI0
aI2
aI2
aa(lp9
I2
aI1
aI1
aI1
aI0
aI2
aI1
aI0
aI0
aI2
aI0
aI0
aa(lp10
I2
aI1
aI1
aI0
aI0
aI2
aI0
aI0
aI0
aI2
aI0
aI0
aa(lp11
I2
aI1
aI1
aI1
aI0
aI2
aI1
aI0
aI0
aI2
aI0
aI0
aa(lp12
I1
aI1
aI0
aI1
aI0
aI1
aI1
aI3
aI0
aI2
aI2
aI0
aa(lp13
I2
aI1
aI1
aI1
aI0
aI2
aI0
aI0
aI0
aI2
aI0
aI0
aa(lp14
I1
aI1
aI1
aI1
aI1
aI1
aI0
aI2
aI0
aI0
aI0
aI0
aa(lp15
I1
aI1
aI1
aI3
aI2
aI2
aI0
aI0
aI0
aI2
aI2
aI2
aa(lp16
I2
aI1
aI1
aI3
aI2
aI1
aI0
aI0
aI0
aI0
aI0
aI1
aa(lp17
I2
aI1
aI1
aI3
aI0
aI2
aI1
aI2
aI0
aI0
aI2
aI2
aa(lp18
I2
aI0
aI1
aI1
aI0
aI2
aI1
aI0
aI0
aI2
aI0
aI0
aa(lp19
I2
aI1
aI0
aI1
aI2
aI1
aI1
aI0
aI0
aI2
aI2
aI0
aa(lp20
I2
aI1
aI1
aI1
aI2
aI1
aI0
aI0
aI0
aI0
aI0
aI0
aa(lp21
I2
aI1
aI0
aI1
aI0
aI1
aI1
aI1
aI0
aI0
aI0
aI2
aa(lp22
I2
aI1
aI0
aI0
aI0
aI2
aI1
aI2
aI0
aI0
aI0
aI0
aa(lp23
I1
aI1
aI1
aI0
aI1
aI1
aI1
aI0
aI0
aI0
aI0
aI0
aa(lp24
I1
aI1
aI1
aI1
aI0
aI2
aI0
aI0
aI0
aI2
aI0
aI0
aa(lp25
I1
aI1
aI1
aI3
aI2
aI2
aI0
aI2
aI0
aI0
aI2
aI2
aa(lp26
I2
aI1
aI0
aI1
aI0
aI1
aI1
aI1
aI0
aI2
aI0
aI0
aa(lp27
I2
aI1
aI0
aI1
aI0
aI2
aI0
aI0
aI0
aI0
aI0
aI0
aa(lp28
I1
aI1
aI1
aI1
aI0
aI1
aI1
aI3
aI0
aI0
aI0
aI0
aa(lp29
I1
aI1
aI1
aI1
aI0
aI1
aI1
aI3
aI0
aI0
aI0
aI0
aa(lp30
I2
aI1
aI0
aI1
aI0
aI1
aI1
aI1
aI0
aI0
aI2
aI2
aa(lp31
I1
aI1
aI1
aI1
aI2
aI1
aI0
aI2
aI0
aI0
aI0
aI2
aa(lp32
I1
aI1
aI1
aI1
aI0
aI1
aI0
aI1
aI0
aI2
aI0
aI0
aa(lp33
I1
aI1
aI1
aI1
aI2
aI1
aI0
aI0
aI0
aI0
aI0
aI2
aa(lp34
I2
aI1
aI0
aI1
aI1
aI1
aI0
aI0
aI0
aI0
aI0
aI2
aa(lp35
I2
aI1
aI1
aI1
aI2
aI2
aI0
aI0
aI0
aI0
aI0
aI2
aa(lp36
I2
aI1
aI0
aI1
aI0
aI2
aI1
aI1
aI0
aI0
aI0
aI0
aa(lp37
I2
aI1
aI0
aI1
aI0
aI1
aI0
aI0
aI0
aI0
aI0
aI0
aa(lp38
I1
aI1
aI0
aI1
aI0
aI1
aI1
aI0
aI0
aI2
aI2
aI2
aa(lp39
I2
aI1
aI1
aI3
aI0
aI1
aI1
aI1
aI0
aI0
aI0
aI0
aa(lp40
I2
aI1
aI1
aI1
aI0
aI2
aI0
aI1
aI0
aI0
aI0
aI1
aa(lp41
I1
aI1
aI1
aI1
aI0
aI1
aI0
aI0
aI0
aI0
aI0
aI0
aa(lp42
I2
aI1
aI0
aI1
aI2
aI1
aI1
aI0
aI0
aI2
aI2
aI2
aa(lp43
I1
aI2
aI0
aI1
aI1
aI1
aI0
aI3
aI0
aI0
aI0
aI0
aa(lp44
I2
aI2
aI0
aI1
aI2
aI1
aI0
aI1
aI0
aI2
aI0
aI0
aa(lp45
I1
aI1
aI1
aI1
aI1
aI2
aI0
aI0
aI0
aI2
aI0
aI0
aa(lp46
I1
aI1
aI1
aI1
aI0
aI1
aI0
aI0
aI0
aI0
aI0
aI0
aa(lp47
I2
aI1
aI1
aI3
aI0
aI1
aI0
aI0
aI0
aI2
aI0
aI0
aa(lp48
I2
aI1
aI0
aI1
aI0
aI1
aI0
aI0
aI0
aI2
aI2
aI2
aa(lp49
I2
aI1
aI1
aI1
aI2
aI1
aI0
aI0
aI0
aI0
aI0
aI0
aa(lp50
I2
aI1
aI1
aI3
aI2
aI1
aI0
aI0
aI0
aI0
aI0
aI0
aa(lp51
I1
aI1
aI1
aI1
aI0
aI1
aI0
aI0
aI0
aI2
aI2
aI2
aa(lp52
I2
aI1
aI1
aI1
aI1
aI1
aI0
aI0
aI0
aI0
aI2
aI2
aa(lp53
I1
aI1
aI1
aI1
aI0
aI1
aI0
aI0
aI0
aI2
aI2
aI0
aa(lp54
I1
aI1
aI1
aI1
aI2
aI1
aI0
aI0
aI0
aI0
aI2
aI2
aa(lp55
I2
aI1
aI1
aI1
aI2
aI2
aI0
aI0
aI0
aI0
aI0
aI0
aa(lp56
I2
aI1
aI1
aI1
aI0
aI1
aI0
aI0
aI0
aI2
aI0
aI0
aa(lp57
I1
aI1
aI1
aI1
aI0
aI1
aI0
aI0
aI0
aI2
aI2
aI2
aa(lp58
I0
aI1
aI0
aI0
aI0
aI1
aI1
aI0
aI0
aI0
aI0
aI0
aa(lp59
I1
aI1
aI1
aI3
aI1
aI1
aI0
aI0
aI0
aI0
aI0
aI0
aa(lp60
I1
aI1
aI1
aI3
aI2
aI2
aI0
aI0
aI0
aI2
aI0
aI0
aa(lp61
I2
aI1
aI1
aI1
aI0
aI1
aI0
aI0
aI0
aI2
aI0
aI0
aa(lp62
I1
aI1
aI1
aI1
aI0
aI1
aI0
aI0
aI0
aI2
aI0
aI0
aa(lp63
I1
aI1
aI1
aI1
aI0
aI1
aI0
aI1
aI0
aI0
aI2
aI2
aa(lp64
I2
aI1
aI0
aI1
aI1
aI2
aI0
aI1
aI0
aI0
aI0
aI0
aa(lp65
I2
aI1
aI1
aI1
aI0
aI1
aI1
aI0
aI0
aI0
aI0
aI0
aa(lp66
I1
aI1
aI1
aI1
aI2
aI1
aI1
aI0
aI0
aI2
aI0
aI0
aa(lp67
I2
aI1
aI1
aI1
aI0
aI1
aI0
aI0
aI0
aI0
aI0
aI0
aa(lp68
I1
aI1
aI1
aI1
aI2
aI1
aI0
aI0
aI0
aI0
aI0
aI0
aa(lp69
I1
aI1
aI1
aI1
aI0
aI2
aI0
aI0
aI0
aI0
aI0
aI0
aa(lp70
I2
aI1
aI1
aI1
aI0
aI1
aI0
aI0
aI0
aI0
aI0
aI2
aa(lp71
I2
aI1
aI1
aI1
aI0
aI1
aI0
aI0
aI0
aI0
aI0
aI0
aa(lp72
I2
aI1
aI1
aI1
aI1
aI1
aI0
aI0
aI0
aI2
aI1
aI0
aa(lp73
I1
aI1
aI1
aI0
aI0
aI1
aI0
aI0
aI0
aI2
aI0
aI0
aa(lp74
I2
aI1
aI0
aI1
aI0
aI1
aI0
aI0
aI0
aI2
aI0
aI0
aa(lp75
I1
aI1
aI1
aI1
aI2
aI1
aI0
aI1
aI0
aI0
aI0
aI0
aa(lp76
I2
aI1
aI0
aI1
aI1
aI1
aI1
aI1
aI0
aI2
aI0
aI0
aa(lp77
I2
aI1
aI1
aI3
aI0
aI1
aI0
aI0
aI0
aI2
aI0
aI0
aa(lp78
I1
aI1
aI1
aI1
aI0
aI1
aI0
aI0
aI0
aI2
aI0
aI0
aa(lp79
I2
aI1
aI1
aI1
aI1
aI1
aI0
aI0
aI0
aI2
aI0
aI0
aa(lp80
I2
aI1
aI1
aI1
aI2
aI1
aI0
aI0
aI0
aI0
aI0
aI2
aa(lp81
I2
aI0
aI0
aI1
aI2
aI1
aI0
aI0
aI0
aI0
aI0
aI0
aa(lp82
I2
aI1
aI1
aI1
aI0
aI1
aI0
aI0
aI0
aI2
aI0
aI0
aa(lp83
I1
aI1
aI1
aI1
aI0
aI1
aI0
aI1
aI0
aI2
aI0
aI0
aa(lp84
I1
aI1
aI1
aI1
aI0
aI2
aI0
aI0
aI0
aI0
aI0
aI0
aa(lp85
I1
aI1
aI1
aI1
aI0
aI1
aI0
aI0
aI0
aI0
aI0
aI0
aa(lp86
I2
aI1
aI0
aI1
aI2
aI1
aI1
aI0
aI0
aI0
aI0
aI0
aa(lp87
I2
aI1
aI1
aI3
aI2
aI2
aI0
aI0
aI0
aI0
aI0
aI0
aa(lp88
I1
aI1
aI1
aI1
aI1
aI1
aI0
aI0
aI0
aI0
aI0
aI0
aa(lp89
I1
aI1
aI1
aI1
aI0
aI1
aI0
aI0
aI0
aI0
aI2
aI2
aa(lp90
I1
aI1
aI1
aI1
aI0
aI2
aI0
aI0
aI0
aI0
aI0
aI0
aa(lp91
I2
aI1
aI1
aI1
aI0
aI1
aI0
aI0
aI0
aI0
aI0
aI2
aa(lp92
I2
aI1
aI1
aI1
aI0
aI1
aI0
aI0
aI0
aI0
aI0
aI0
aa(lp93
I0
aI1
aI1
aI1
aI0
aI1
aI1
aI0
aI0
aI2
aI0
aI0
aa(lp94
I1
aI1
aI1
aI3
aI0
aI1
aI0
aI0
aI0
aI2
aI2
aI2
aa(lp95
I2
aI1
aI1
aI1
aI1
aI1
aI0
aI0
aI0
aI0
aI0
aI0
aa(lp96
I2
aI1
aI1
aI1
aI0
aI1
aI0
aI0
aI0
aI2
aI2
aI0
aa(lp97
I2
aI1
aI1
aI1
aI0
aI1
aI0
aI0
aI0
aI0
aI2
aI2
aa(lp98
I2
aI1
aI1
aI1
aI0
aI1
aI0
aI0
aI0
aI2
aI0
aI0
aa(lp99
I1
aI1
aI1
aI1
aI0
aI1
aI0
aI0
aI0
aI2
aI2
aI2
aa(lp100
I2
aI1
aI1
aI3
aI0
aI1
aI0
aI0
aI0
aI0
aI0
aI0
aa(lp101
I2
aI1
aI1
aI0
aI2
aI1
aI0
aI0
aI0
aI0
aI0
aI0
aa(lp102
I2
aI1
aI1
aI3
aI0
aI1
aI0
aI0
aI0
aI2
aI2
aI0
aa(lp103
I1
aI1
aI1
aI1
aI1
aI1
aI0
aI2
aI0
aI1
aI0
aI0
aa(lp104
I1
aI1
aI1
aI1
aI2
aI1
aI0
aI0
aI0
aI0
aI0
aI1
aa(lp105
I2
aI1
aI1
aI1
aI2
aI1
aI0
aI0
aI0
aI0
aI0
aI2
aa(lp106
I1
aI1
aI1
aI1
aI0
aI1
aI0
aI0
aI0
aI0
aI0
aI2
aa(lp107
I2
aI1
aI1
aI1
aI2
aI1
aI0
aI0
aI0
aI0
aI0
aI0
aa(lp108
I2
aI0
aI1
aI1
aI0
aI1
aI2
aI0
aI0
aI0
aI0
aI0
aa(lp109
I2
aI1
aI1
aI1
aI0
aI1
aI0
aI0
aI0
aI2
aI0
aI0
aa(lp110
I2
aI1
aI1
aI3
aI0
aI1
aI1
aI2
aI0
aI0
aI0
aI0
aa(lp111
I2
aI1
aI1
aI1
aI0
aI1
aI1
aI0
aI0
aI2
aI0
aI0
aa(lp112
I2
aI1
aI1
aI3
aI0
aI1
aI0
aI0
aI0
aI2
aI0
aI1
aa(lp113
I1
aI1
aI1
aI1
aI1
aI2
aI0
aI0
aI0
aI2
aI0
aI0
aa(lp114
I1
aI1
aI1
aI1
aI0
aI1
aI0
aI0
aI0
aI0
aI0
aI0
aa(lp115
I2
aI1
aI1
aI3
aI0
aI1
aI0
aI0
aI0
aI2
aI0
aI0
aa(lp116
I1
aI1
aI0
aI1
aI0
aI1
aI0
aI0
aI0
aI2
aI2
aI2
aa(lp117
I2
aI1
aI1
aI1
aI2
aI1
aI0
aI0
aI0
aI0
aI0
aI0
aa(lp118
I2
aI1
aI1
aI3
aI2
aI1
aI0
aI0
aI0
aI0
aI0
aI0
aa(lp119
I1
aI1
aI1
aI1
aI0
aI1
aI0
aI0
aI0
aI2
aI2
aI2
aa(lp120
I1
aI1
aI1
aI1
aI1
aI1
aI0
aI0
aI0
aI0
aI2
aI2
aa(lp121
I1
aI1
aI1
aI1
aI0
aI1
aI0
aI0
aI0
aI2
aI2
aI0
aa(lp122
I1
aI1
aI1
aI1
aI2
aI1
aI0
aI0
aI0
aI0
aI2
aI2
aa(lp123
I2
aI1
aI1
aI1
aI2
aI2
aI0
aI0
aI0
aI0
aI0
aI0
aa(lp124
I2
aI1
aI1
aI1
aI0
aI1
aI0
aI0
aI0
aI2
aI0
aI0
aa(lp125
I1
aI1
aI1
aI1
aI0
aI1
aI0
aI0
aI0
aI2
aI2
aI2
aa(lp126
I0
aI1
aI0
aI0
aI0
aI1
aI1
aI0
aI0
aI0
aI0
aI0
aa(lp127
I1
aI1
aI1
aI3
aI1
aI1
aI0
aI0
aI0
aI0
aI0
aI0
aa(lp128
I1
aI1
aI1
aI3
aI2
aI2
aI0
aI0
aI0
aI2
aI0
aI0
aa(lp129
I2
aI1
aI1
aI1
aI0
aI1
aI0
aI0
aI0
aI2
aI0
aI0
aa(lp130
I1
aI1
aI1
aI1
aI0
aI1
aI0
aI0
aI0
aI2
aI0
aI0
aa(lp131
I1
aI1
aI1
aI1
aI0
aI1
aI0
aI1
aI0
aI0
aI2
aI2
aa(lp132
I2
aI1
aI0
aI1
aI1
aI2
aI0
aI1
aI0
aI0
aI0
aI0
aa(lp133
I2
aI1
aI1
aI1
aI0
aI1
aI1
aI0
aI0
aI0
aI0
aI0
aa(lp134
I1
aI1
aI1
aI1
aI2
aI1
aI1
aI0
aI0
aI2
aI0
aI0
aa(lp135
I1
aI1
aI0
aI1
aI0
aI1
aI0
aI0
aI0
aI0
aI0
aI0
aa(lp136
I1
aI1
aI0
aI1
aI0
aI1
aI0
aI0
aI0
aI2
aI0
aI0
aa(lp137
I1
aI1
aI0
aI1
aI0
aI1
aI0
aI0
aI0
aI2
aI2
aI0
aa(lp138
I1
aI1
aI0
aI1
aI0
aI1
aI0
aI0
aI0
aI0
aI0
aI0
aa(lp139
I1
aI1
aI0
aI1
aI0
aI1
aI0
aI0
aI0
aI0
aI0
aI0
aa(lp140
I1
aI1
aI0
aI1
aI0
aI1
aI0
aI0
aI0
aI2
aI0
aI0
aa(lp141
I1
aI1
aI0
aI1
aI0
aI1
aI0
aI0
aI0
aI0
aI0
aI0
aa(lp142
I1
aI1
aI0
aI1
aI0
aI1
aI0
aI0
aI0
aI0
aI2
aI2
aa(lp143
I1
aI1
aI0
aI1
aI0
aI1
aI0
aI0
aI0
aI0
aI0
aI0
aa(lp144
I1
aI1
aI0
aI1
aI0
aI1
aI0
aI0
aI0
aI2
aI0
aI0
aa(lp145
I1
aI1
aI0
aI1
aI0
aI1
aI0
aI0
aI0
aI2
aI0
aI0
aa(lp146
I1
aI1
aI0
aI1
aI0
aI1
aI0
aI0
aI0
aI2
aI0
aI0
aa(lp147
I1
aI1
aI0
aI1
aI0
aI1
aI0
aI0
aI0
aI2
aI0
aI0
aa(lp148
I1
aI1
aI0
aI1
aI0
aI1
aI0
aI0
aI0
aI2
aI0
aI0
aa(lp149
I1
aI1
aI0
aI1
aI0
aI1
aI0
aI0
aI0
aI0
aI0
aI2
aa(lp150
I1
aI1
aI0
aI1
aI0
aI1
aI0
aI0
aI0
aI2
aI0
aI0
aa(lp151
I1
aI1
aI0
aI1
aI0
aI1
aI0
aI0
aI0
aI2
aI0
aI0
aa(lp152
I1
aI1
aI0
aI1
aI0
aI1
aI0
aI0
aI0
aI2
aI0
aI0
aa(lp153
I1
aI1
aI0
aI1
aI0
aI1
aI0
aI0
aI0
aI2
aI0
aI0
aa(lp154
I1
aI1
aI0
aI1
aI0
aI1
aI0
aI0
aI0
aI2
aI0
aI0
aa(lp155
I1
aI1
aI0
aI1
aI0
aI1
aI0
aI0
aI0
aI2
aI0
aI0
aa(lp156
I1
aI1
aI0
aI1
aI0
aI1
aI0
aI0
aI0
aI2
aI0
aI0
aa(lp157
I1
aI1
aI0
aI1
aI0
aI1
aI1
aI2
aI0
aI0
aI0
aI2
aa(lp158
I1
aI1
aI1
aI3
aI0
aI1
aI1
aI0
aI0
aI0
aI0
aI2
aa(lp159
I1
aI1
aI0
aI1
aI0
aI1
aI0
aI0
aI0
aI0
aI0
aI2
aa(lp160
I1
aI0
aI1
aI1
aI2
aI1
aI0
aI0
aI0
aI0
aI2
aI2
aa(lp161
I1
aI1
aI0
aI1
aI0
aI1
aI0
aI3
aI0
aI2
aI0
aI0
aa(lp162
I1
aI1
aI0
aI1
aI0
aI1
aI0
aI0
aI0
aI2
aI2
aI0
aa(lp163
I2
aI1
aI0
aI1
aI1
aI1
aI0
aI2
aI0
aI0
aI0
aI2
aa(lp164
I1
aI1
aI0
aI1
aI0
aI2
aI1
aI1
aI0
aI0
aI0
aI0
aa(lp165
I2
aI1
aI1
aI1
aI2
aI1
aI0
aI0
aI0
aI0
aI0
aI0
aa(lp166
I1
aI1
aI1
aI1
aI0
aI2
aI1
aI3
aI0
aI2
aI2
aI0
aa(lp167
I2
aI1
aI1
aI1
aI2
aI1
aI0
aI1
aI0
aI0
aI0
aI2
aa(lp168
I0
aI1
aI1
aI1
aI0
aI2
aI1
aI2
aI0
aI0
aI0
aI0
aa(lp169
I1
aI1
aI1
aI1
aI0
aI1
aI1
aI2
aI0
aI0
aI0
aI0
aa(lp170
I2
aI1
aI1
aI1
aI0
aI1
aI1
aI3
aI0
aI2
aI0
aI0
aa(lp171
I2
aI1
aI0
aI1
aI0
aI1
aI0
aI0
aI0
aI0
aI0
aI0
aa(lp172
I1
aI1
aI1
aI1
aI2
aI1
aI0
aI0
aI0
aI0
aI0
aI0
aa(lp173
I1
aI1
aI0
aI1
aI2
aI1
aI1
aI0
aI0
aI0
aI0
aI0
aa(lp174
I1
aI1
aI1
aI1
aI0
aI1
aI0
aI0
aI0
aI2
aI0
aI0
aa(lp175
I1
aI1
aI1
aI1
aI0
aI1
aI0
aI0
aI0
aI0
aI0
aI0
aa(lp176
I2
aI1
aI1
aI1
aI0
aI1
aI0
aI0
aI0
aI0
aI0
aI0
aa(lp177
I2
aI1
aI1
aI1
aI0
aI1
aI1
aI0
aI0
aI2
aI2
aI2
aa(lp178
I2
aI1
aI1
aI1
aI2
aI1
aI0
aI0
aI0
aI0
aI0
aI2
aa(lp179
I2
aI1
aI0
aI1
aI0
aI2
aI0
aI0
aI0
aI2
aI0
aI0
aa(lp180
I2
aI0
aI0
aI1
aI0
aI1
aI1
aI0
aI0
aI2
aI0
aI0
aa(lp181
I1
aI1
aI1
aI1
aI0
aI1
aI0
aI0
aI0
aI0
aI0
aI0
aa(lp182
I1
aI1
aI1
aI1
aI0
aI1
aI0
aI0
aI0
aI2
aI2
aI0
aa(lp183
I1
aI1
aI1
aI3
aI0
aI1
aI1
aI1
aI0
aI0
aI0
aI0
aa(lp184
I1
aI1
aI1
aI1
aI0
aI1
aI0
aI0
aI0
aI0
aI0
aI2
aa(lp185
I1
aI1
aI1
aI1
aI1
aI1
aI0
aI0
aI0
aI0
aI0
aI2
aa(lp186
I1
aI2
aI1
aI1
aI0
aI1
aI1
aI0
aI0
aI2
aI2
aI2
aa(lp187
I0
aI1
aI1
aI1
aI0
aI1
aI0
aI0
aI0
aI2
aI0
aI0
aa(lp188
I1
aI1
aI1
aI1
aI0
aI1
aI0
aI0
aI0
aI2
aI0
aI0
aa(lp189
I1
aI1
aI1
aI1
aI0
aI1
aI0
aI0
aI0
aI0
aI0
aI2
aa(lp190
I2
aI1
aI1
aI1
aI0
aI1
aI1
aI0
aI0
aI0
aI0
aI2
aa(lp191
I1
aI1
aI1
aI1
aI0
aI1
aI1
aI0
aI0
aI2
aI2
aI0
aa(lp192
I2
aI1
aI1
aI1
aI0
aI2
aI0
aI0
aI0
aI2
aI2
aI0
aa(lp193
I1
aI1
aI1
aI1
aI2
aI1
aI0
aI0
aI0
aI2
aI2
aI0
aa(lp194
I0
aI2
aI0
aI1
aI1
aI1
aI1
aI2
aI0
aI2
aI0
aI0
aa(lp195
I1
aI1
aI1
aI1
aI0
aI1
aI0
aI0
aI0
aI0
aI0
aI2
aa(lp196
I1
aI1
aI1
aI1
aI2
aI1
aI0
aI0
aI0
aI0
aI0
aI0
aa(lp197
I2
aI1
aI1
aI1
aI1
aI1
aI0
aI0
aI0
aI2
aI0
aI1
aa(lp198
I1
aI2
aI1
aI1
aI0
aI2
aI1
aI0
aI0
aI2
aI0
aI0
aa(lp199
I2
aI1
aI1
aI1
aI0
aI1
aI0
aI0
aI0
aI2
aI2
aI2
aa(lp200
I1
aI1
aI0
aI1
aI0
aI1
aI0
aI0
aI0
aI0
aI0
aI0
aa(lp201
I1
aI1
aI1
aI1
aI0
aI1
aI1
aI0
aI0
aI0
aI0
aI2
aa(lp202
I1
aI1
aI1
aI0
aI0
aI1
aI1
aI2
aI0
aI0
aI0
aI0
aa(lp203
I2
aI1
aI1
aI1
aI0
aI1
aI0
aI0
aI0
aI0
aI0
aI0
aa(lp204
I1
aI1
aI0
aI1
aI0
aI2
aI0
aI0
aI0
aI0
aI0
aI2
aa(lp205
I1
aI2
aI0
aI1
aI1
aI2
aI1
aI2
aI0
aI0
aI0
aI0
aa(lp206
I0
aI1
aI0
aI1
aI0
aI2
aI1
aI0
aI0
aI2
aI0
aI0
aa(lp207
I1
aI2
aI1
aI1
aI0
aI2
aI0
aI0
aI0
aI0
aI0
aI2
aa(lp208
I2
aI1
aI1
aI1
aI1
aI1
aI0
aI0
aI0
aI0
aI0
aI0
aa(lp209
I1
aI1
aI1
aI1
aI2
aI1
aI0
aI0
aI0
aI2
aI0
aI0
aa(lp210
I0
aI1
aI1
aI1
aI0
aI1
aI0
aI0
aI0
aI0
aI0
aI2
aa(lp211
I1
aI1
aI1
aI1
aI0
aI1
aI1
aI1
aI0
aI2
aI2
aI0
aa(lp212
I1
aI0
aI1
aI3
aI0
aI2
aI1
aI0
aI0
aI0
aI0
aI0
aa(lp213
I1
aI1
aI0
aI1
aI0
aI1
aI1
aI2
aI0
aI2
aI0
aI0
aa(lp214
I0
aI1
aI1
aI1
aI2
aI1
aI0
aI0
aI0
aI2
aI2
aI1
aa(lp215
I1
aI1
aI0
aI1
aI1
aI1
aI1
aI0
aI0
aI2
aI2
aI0
aa(lp216
I2
aI1
aI0
aI1
aI0
aI2
aI1
aI0
aI0
aI2
aI0
aI0
aa(lp217
I1
aI1
aI1
aI1
aI2
aI1
aI0
aI0
aI0
aI2
aI0
aI0
aa(lp218
I1
aI1
aI1
aI1
aI2
aI1
aI0
aI0
aI0
aI0
aI0
aI0
aa(lp219
I1
aI1
aI1
aI1
aI0
aI2
aI0
aI2
aI0
aI0
aI0
aI0
aa(lp220
I1
aI1
aI0
aI1
aI2
aI1
aI1
aI1
aI0
aI1
aI0
aI0
aa(lp221
I1
aI0
aI0
aI1
aI0
aI2
aI0
aI0
aI0
aI0
aI2
aI2
aa(lp222
I1
aI1
aI1
aI1
aI0
aI1
aI0
aI0
aI0
aI0
aI0
aI0
aa(lp223
I2
aI1
aI1
aI1
aI0
aI1
aI1
aI0
aI0
aI0
aI0
aI2
aa(lp224
I1
aI1
aI1
aI1
aI0
aI1
aI0
aI0
aI0
aI2
aI0
aI0
aa(lp225
I1
aI1
aI1
aI1
aI0
aI1
aI0
aI0
aI0
aI0
aI0
aI2
aa(lp226
I1
aI1
aI0
aI1
aI0
aI1
aI1
aI0
aI0
aI2
aI2
aI0
aa(lp227
I1
aI1
aI1
aI1
aI1
aI1
aI0
aI0
aI0
aI0
aI0
aI0
aa(lp228
I2
aI1
aI1
aI1
aI0
aI1
aI0
aI0
aI0
aI0
aI0
aI0
aa(lp229
I1
aI1
aI1
aI1
aI2
aI1
aI0
aI0
aI0
aI0
aI0
aI0
aa(lp230
I1
aI1
aI1
aI1
aI0
aI2
aI0
aI0
aI0
aI0
aI0
aI0
aa(lp231
I2
aI1
aI1
aI1
aI0
aI1
aI0
aI0
aI0
aI0
aI0
aI2
aa(lp232
I2
aI1
aI1
aI1
aI0
aI1
aI0
aI0
aI0
aI0
aI0
aI0
aa(lp233
I2
aI1
aI1
aI1
aI1
aI1
aI0
aI0
aI0
aI2
aI1
aI0
aa(lp234
I1
aI1
aI1
aI0
aI0
aI1
aI0
aI0
aI0
aI2
aI0
aI0
aa(lp235
I2
aI1
aI0
aI1
aI0
aI1
aI0
aI0
aI0
aI2
aI0
aI0
aa(lp236
I1
aI1
aI1
aI1
aI2
aI1
aI0
aI1
aI0
aI0
aI0
aI0
aa(lp237
I2
aI1
aI0
aI1
aI1
aI1
aI1
aI1
aI0
aI2
aI0
aI0
aa(lp238
I2
aI1
aI1
aI3
aI0
aI1
aI0
aI0
aI0
aI2
aI0
aI0
aa(lp239
I1
aI1
aI1
aI1
aI0
aI1
aI0
aI0
aI0
aI2
aI0
aI0
aa(lp240
I2
aI1
aI1
aI1
aI1
aI1
aI0
aI0
aI0
aI2
aI0
aI0
aa(lp241
I2
aI1
aI1
aI1
aI2
aI1
aI0
aI0
aI0
aI0
aI0
aI2
aa(lp242
I2
aI0
aI0
aI1
aI2
aI1
aI0
aI0
aI0
aI0
aI0
aI0
aa(lp243
I2
aI1
aI1
aI1
aI0
aI1
aI0
aI0
aI0
aI2
aI0
aI0
aa(lp244
I1
aI1
aI1
aI1
aI0
aI1
aI0
aI1
aI0
aI2
aI0
aI0
aa(lp245
I1
aI1
aI1
aI1
aI0
aI2
aI0
aI0
aI0
aI0
aI0
aI0
aa(lp246
I1
aI1
aI1
aI1
aI0
aI1
aI0
aI0
aI0
aI0
aI0
aI0
aa(lp247
I1
aI1
aI0
aI1
aI2
aI1
aI1
aI0
aI0
aI0
aI0
aI0
aa(lp248
I2
aI1
aI1
aI3
aI2
aI2
aI0
aI0
aI0
aI0
aI0
aI0
aa(lp249
I1
aI1
aI1
aI1
aI1
aI1
aI0
aI0
aI0
aI0
aI0
aI0
aa(lp250
I1
aI1
aI1
aI1
aI0
aI1
aI0
aI0
aI0
aI0
aI2
aI2
aa(lp251
I1
aI1
aI1
aI1
aI2
aI1
aI0
aI0
aI0
aI0
aI0
aI0
aa(lp252
I1
aI1
aI1
aI1
aI1
aI1
aI0
aI0
aI0
aI2
aI2
aI2
aa(lp253
I2
aI1
aI1
aI1
aI0
aI1
aI0
aI0
aI0
aI2
aI0
aI0
aa(lp254
I1
aI1
aI1
aI1
aI0
aI1
aI1
aI0
aI0
aI2
aI0
aI0
aa(lp255
I1
aI1
aI1
aI3
aI2
aI1
aI0
aI0
aI0
aI0
aI0
aI0
aa(lp256
I2
aI1
aI1
aI1
aI0
aI1
aI0
aI0
aI0
aI0
aI0
aI0
aa(lp257
I1
aI1
aI1
aI1
aI0
aI2
aI0
aI0
aI0
aI0
aI0
aI2
aa(lp258
I2
aI1
aI1
aI1
aI0
aI1
aI0
aI0
aI0
aI0
aI0
aI2
aa(lp259
I2
aI1
aI1
aI1
aI0
aI1
aI0
aI0
aI0
aI2
aI2
aI0
aa(lp260
I1
aI1
aI1
aI1
aI0
aI1
aI0
aI0
aI0
aI0
aI0
aI0
aa(lp261
I1
aI1
aI1
aI3
aI0
aI1
aI0
aI0
aI0
aI0
aI0
aI0
aa(lp262
I2
aI1
aI1
aI0
aI0
aI1
aI0
aI0
aI0
aI0
aI2
aI2
aa(lp263
I2
aI2
aI1
aI1
aI2
aI1
aI1
aI0
aI0
aI2
aI0
aI0
aa(lp264
I1
aI1
aI1
aI3
aI0
aI2
aI0
aI0
aI0
aI2
aI0
aI0
aa(lp265
I2
aI1
aI1
aI1
aI0
aI1
aI0
aI0
aI0
aI2
aI2
aI0
aa(lp266
I2
aI1
aI1
aI1
aI0
aI2
aI1
aI0
aI0
aI2
aI2
aI2
aa(lp267
I2
aI1
aI1
aI1
aI0
aI1
aI0
aI0
aI0
aI2
aI2
aI0
aa(lp268
I1
aI0
aI1
aI1
aI0
aI1
aI0
aI0
aI0
aI0
aI0
aI2
aa(lp269
I2
aI1
aI1
aI3
aI0
aI1
aI0
aI0
aI0
aI0
aI0
aI0
aa(lp270
I1
aI1
aI1
aI1
aI0
aI1
aI0
aI0
aI0
aI0
aI0
aI0
aa(lp271
I2
aI1
aI1
aI1
aI0
aI1
aI0
aI0
aI0
aI1
aI0
aI0
aa(lp272
I2
aI0
aI1
aI1
aI0
aI1
aI1
aI0
aI0
aI2
aI0
aI0
aa(lp273
I2
aI1
aI1
aI3
aI0
aI1
aI0
aI0
aI0
aI1
aI0
aI0
aa(lp274
I2
aI1
aI1
aI1
aI1
aI1
aI1
aI0
aI0
aI2
aI0
aI0
aa(lp275
I1
aI1
aI1
aI1
aI0
aI1
aI0
aI0
aI0
aI0
aI2
aI2
aa(lp276
I1
aI1
aI1
aI1
aI2
aI1
aI0
aI0
aI0
aI2
aI2
aI0
aa(lp277
I0
aI1
aI1
aI1
aI0
aI1
aI0
aI0
aI0
aI2
aI0
aI0
aa(lp278
I1
aI1
aI1
aI1
aI0
aI1
aI0
aI0
aI0
aI2
aI2
aI2
aa(lp279
I1
aI1
aI1
aI1
aI0
aI2
aI0
aI0
aI0
aI0
aI0
aI1
aa(lp280
I0
aI1
aI1
aI1
aI0
aI1
aI0
aI0
aI0
aI0
aI0
aI0
aa(lp281
I1
aI1
aI1
aI1
aI2
aI2
aI0
aI0
aI0
aI0
aI0
aI1
aa(lp282
I2
aI1
aI1
aI1
aI2
aI1
aI0
aI0
aI0
aI2
aI2
aI0
aa(lp283
I2
aI0
aI1
aI1
aI0
aI1
aI1
aI0
aI0
aI2
aI2
aI0
aa(lp284
I1
aI2
aI1
aI1
aI0
aI2
aI0
aI0
aI0
aI0
aI0
aI1
aa(lp285
I2
aI1
aI1
aI1
aI2
aI1
aI0
aI0
aI0
aI1
aI0
aI0
aa(lp286
I2
aI1
aI1
aI1
aI1
aI1
aI0
aI0
aI0
aI1
aI0
aI0
aa(lp287
I1
aI1
aI1
aI1
aI0
aI1
aI0
aI0
aI0
aI2
aI2
aI0
aa(lp288
I1
aI1
aI1
aI1
aI0
aI1
aI0
aI0
aI0
aI1
aI1
aI1
aa(lp289
I2
aI1
aI1
aI3
aI0
aI1
aI0
aI0
aI0
aI0
aI0
aI2
aa(lp290
I2
aI1
aI1
aI1
aI0
aI1
aI0
aI0
aI0
aI0
aI0
aI2
aa(lp291
I2
aI1
aI1
aI1
aI1
aI1
aI0
aI0
aI0
aI1
aI1
aI1
aa(lp292
I2
aI1
aI0
aI1
aI0
aI2
aI0
aI0
aI0
aI1
aI1
aI1
aa(lp293
I2
aI1
aI1
aI3
aI1
aI1
aI0
aI0
aI0
aI1
aI2
aI2
aa(lp294
I2
aI1
aI1
aI3
aI0
aI1
aI0
aI0
aI0
aI1
aI1
aI1
aa(lp295
I1
aI1
aI1
aI1
aI1
aI1
aI0
aI0
aI0
aI2
aI2
aI2
aa(lp296
I1
aI1
aI0
aI1
aI0
aI1
aI1
aI0
aI0
aI0
aI0
aI2
aa(lp297
I1
aI2
aI1
aI1
aI0
aI2
aI0
aI1
aI0
aI0
aI0
aI0
aa(lp298
I1
aI1
aI1
aI1
aI0
aI2
aI0
aI2
aI0
aI0
aI0
aI0
aa(lp299
I2
aI1
aI0
aI1
aI0
aI2
aI1
aI3
aI0
aI0
aI0
aI0
aa(lp300
I1
aI1
aI1
aI1
aI0
aI1
aI0
aI1
aI0
aI0
aI0
aI2
aa(lp301
I1
aI1
aI1
aI1
aI0
aI2
aI0
aI0
aI0
aI0
aI0
aI0
aa(lp302
I0
aI2
aI0
aI1
aI2
aI1
aI1
aI0
aI0
aI2
aI0
aI0
aa(lp303
I2
aI1
aI1
aI1
aI0
aI1
aI1
aI0
aI0
aI2
aI0
aI0
aa(lp304
I1
aI1
aI0
aI1
aI0
aI1
aI1
aI2
aI0
aI2
aI2
aI0
aa(lp305
I1
aI1
aI1
aI1
aI0
aI2
aI1
aI3
aI0
aI2
aI2
aI0
aa(lp306
I1
aI1
aI0
aI1
aI0
aI2
aI0
aI3
aI0
aI2
aI0
aI0
aa(lp307
I1
aI0
aI1
aI1
aI0
aI2
aI1
aI2
aI0
aI0
aI0
aI0
aa(lp308
I1
aI1
aI0
aI1
aI0
aI2
aI1
aI2
aI0
aI2
aI0
aI0
aa(lp309
I1
aI1
aI0
aI1
aI0
aI2
aI1
aI2
aI0
aI0
aI0
aI0
aa(lp310
I2
aI1
aI1
aI1
aI0
aI1
aI1
aI0
aI0
aI2
aI2
aI2
aa(lp311
I2
aI1
aI1
aI0
aI1
aI1
aI0
aI1
aI0
aI2
aI0
aI0
aa(lp312
I2
aI1
aI1
aI3
aI0
aI2
aI1
aI0
aI0
aI0
aI0
aI0
aa(lp313
I1
aI0
aI0
aI1
aI2
aI2
aI1
aI0
aI0
aI0
aI0
aI0
aa(lp314
I1
aI1
aI1
aI1
aI0
aI2
aI0
aI0
aI0
aI0
aI0
aI2
aa(lp315
I1
aI1
aI1
aI1
aI0
aI2
aI0
aI0
aI0
aI2
aI0
aI0
aa(lp316
I1
aI1
aI0
aI1
aI0
aI2
aI1
aI0
aI0
aI2
aI0
aI0
aa(lp317
I2
aI1
aI1
aI0
aI0
aI2
aI1
aI0
aI0
aI2
aI0
aI0
aa(lp318
I2
aI1
aI1
aI1
aI1
aI1
aI0
aI0
aI0
aI0
aI0
aI0
aa(lp319
I1
aI1
aI1
aI1
aI1
aI0
aI0
aI0
aI0
aI0
aI2
aI2
aa(lp320
I1
aI1
aI0
aI1
aI0
aI2
aI0
aI0
aI0
aI0
aI0
aI0
aa(lp321
I2
aI1
aI1
aI3
aI2
aI1
aI1
aI1
aI0
aI2
aI0
aI0
aa(lp322
I1
aI1
aI0
aI1
aI0
aI2
aI0
aI0
aI0
aI0
aI0
aI0
aa(lp323
I1
aI1
aI1
aI3
aI0
aI1
aI0
aI0
aI0
aI0
aI0
aI2
aa(lp324
I1
aI1
aI1
aI1
aI0
aI2
aI0
aI0
aI0
aI0
aI0
aI2
aa(lp325
I1
aI1
aI1
aI1
aI0
aI1
aI0
aI0
aI0
aI0
aI2
aI0
aa(lp326
I2
aI1
aI1
aI1
aI0
aI2
aI0
aI0
aI0
aI0
aI0
aI0
aa(lp327
I2
aI1
aI0
aI0
aI1
aI1
aI0
aI0
aI0
aI0
aI0
aI0
aa(lp328
I2
aI1
aI0
aI1
aI2
aI2
aI1
aI3
aI0
aI2
aI0
aI0
aa(lp329
I1
aI1
aI1
aI1
aI0
aI2
aI1
aI0
aI0
aI0
aI0
aI0
aa(lp330
I1
aI1
aI1
aI1
aI0
aI1
aI0
aI0
aI0
aI0
aI0
aI0
aa(lp331
I1
aI1
aI1
aI1
aI0
aI1
aI1
aI0
aI0
aI0
aI0
aI0
aa(lp332
I1
aI1
aI1
aI1
aI0
aI1
aI0
aI2
aI0
aI0
aI0
aI0
aa(lp333
I1
aI1
aI1
aI0
aI0
aI1
aI1
aI0
aI0
aI0
aI2
aI2
aa(lp334
I1
aI1
aI1
aI1
aI0
aI1
aI0
aI0
aI0
aI2
aI0
aI0
aa(lp335
I2
aI1
aI1
aI1
aI2
aI2
aI0
aI0
aI0
aI0
aI0
aI2
aa(lp336
I1
aI1
aI1
aI1
aI1
aI1
aI1
aI0
aI0
aI0
aI0
aI0
aa(lp337
I1
aI1
aI0
aI1
aI0
aI1
aI0
aI0
aI0
aI2
aI0
aI0
aa(lp338
I2
aI1
aI1
aI1
aI0
aI2
aI1
aI0
aI0
aI0
aI0
aI0
aa(lp339
I1
aI1
aI1
aI0
aI0
aI1
aI0
aI0
aI0
aI0
aI0
aI2
aa(lp340
I1
aI1
aI0
aI1
aI0
aI1
aI0
aI0
aI0
aI0
aI0
aI2
aa(lp341
I1
aI0
aI1
aI1
aI0
aI2
aI0
aI0
aI0
aI0
aI0
aI0
aa(lp342
I1
aI1
aI0
aI1
aI0
aI1
aI0
aI0
aI0
aI0
aI0
aI0
aa(lp343
I1
aI1
aI0
aI1
aI0
aI1
aI0
aI0
aI0
aI0
aI0
aI2
aa(lp344
I1
aI1
aI1
aI1
aI1
aI2
aI0
aI0
aI0
aI0
aI0
aI2
aa(lp345
I1
aI1
aI0
aI1
aI0
aI1
aI1
aI0
aI0
aI0
aI0
aI2
aa(lp346
I2
aI1
aI1
aI1
aI0
aI1
aI0
aI0
aI0
aI0
aI0
aI0
aa(lp347
I2
aI1
aI1
aI1
aI0
aI1
aI0
aI0
aI0
aI0
aI0
aI0
aa(lp348
I1
aI1
aI0
aI1
aI0
aI2
aI0
aI0
aI0
aI0
aI0
aI2
aa(lp349
I1
aI2
aI0
aI1
aI1
aI2
aI1
aI2
aI0
aI0
aI0
aI0
aa(lp350
I0
aI1
aI0
aI1
aI0
aI2
aI1
aI0
aI0
aI2
aI0
aI0
aa(lp351
I1
aI2
aI1
aI1
aI0
aI2
aI0
aI0
aI0
aI0
aI0
aI2
aa(lp352
I2
aI1
aI1
aI1
aI1
aI1
aI0
aI0
aI0
aI0
aI0
aI0
aa(lp353
I1
aI1
aI1
aI1
aI2
aI1
aI0
aI0
aI0
aI2
aI0
aI0
aa(lp354
I0
aI1
aI1
aI1
aI0
aI1
aI0
aI0
aI0
aI0
aI0
aI2
aa(lp355
I1
aI1
aI1
aI1
aI0
aI1
aI1
aI1
aI0
aI2
aI2
aI0
aa(lp356
I1
aI0
aI1
aI3
aI0
aI2
aI1
aI0
aI0
aI0
aI0
aI0
aa(lp357
I1
aI1
aI0
aI1
aI0
aI2
aI1
aI2
aI0
aI2
aI0
aI0
aa(lp358
I0
aI1
aI1
aI1
aI2
aI1
aI0
aI0
aI0
aI2
aI2
aI1
aa(lp359
I1
aI1
aI0
aI1
aI1
aI1
aI1
aI0
aI0
aI2
aI2
aI0
aa(lp360
I2
aI1
aI0
aI1
aI0
aI2
aI1
aI0
aI0
aI2
aI0
aI0
aa(lp361
I1
aI1
aI1
aI1
aI2
aI1
aI0
aI0
aI0
aI2
aI0
aI0
aa(lp362
I1
aI1
aI1
aI1
aI2
aI1
aI0
aI0
aI0
aI0
aI0
aI0
aa(lp363
I1
aI1
aI1
aI1
aI0
aI2
aI0
aI2
aI0
aI0
aI0
aI0
aa(lp364
I1
aI1
aI0
aI1
aI2
aI1
aI1
aI1
aI0
aI1
aI0
aI0
aa(lp365
I1
aI0
aI0
aI1
aI0
aI2
aI0
aI0
aI0
aI0
aI2
aI2
aa(lp366
I1
aI1
aI1
aI1
aI0
aI1
aI0
aI0
aI0
aI0
aI0
aI0
aa(lp367
I2
aI1
aI1
aI1
aI0
aI1
aI1
aI0
aI0
aI0
aI0
aI2
aa(lp368
I1
aI1
aI1
aI1
aI0
aI1
aI0
aI0
aI0
aI2
aI0
aI0
aa(lp369
I1
aI1
aI1
aI1
aI0
aI1
aI0
aI0
aI0
aI0
aI0
aI2
aa(lp370
I1
aI1
aI0
aI1
aI0
aI1
aI1
aI0
aI0
aI2
aI2
aI0
aa(lp371
I1
aI1
aI1
aI1
aI1
aI1
aI0
aI0
aI0
aI0
aI0
aI0
aa(lp372
I1
aI1
aI1
aI1
aI0
aI1
aI0
aI0
aI0
aI2
aI0
aI0
aa(lp373
I1
aI1
aI1
aI1
aI2
aI1
aI0
aI0
aI0
aI2
aI0
aI2
aa(lp374
I1
aI1
aI1
aI1
aI0
aI1
aI0
aI0
aI0
aI2
aI2
aI0
aa(lp375
I2
aI1
aI1
aI1
aI1
aI2
aI0
aI0
aI0
aI2
aI0
aI0
aa(lp376
I2
aI1
aI1
aI1
aI2
aI2
aI0
aI0
aI0
aI0
aI0
aI0
aa(lp377
I2
aI1
aI0
aI1
aI0
aI1
aI1
aI0
aI0
aI0
aI0
aI0
aa(lp378
I2
aI1
aI1
aI1
aI2
aI1
aI0
aI0
aI0
aI2
aI0
aI0
aa(lp379
I2
aI1
aI1
aI3
aI0
aI1
aI0
aI0
aI0
aI2
aI0
aI0
aa(lp380
I1
aI2
aI0
aI1
aI0
aI2
aI1
aI3
aI0
aI0
aI0
aI0
aa(lp381
I2
aI1
aI1
aI3
aI0
aI2
aI0
aI0
aI0
aI2
aI0
aI0
aa(lp382
I1
aI1
aI1
aI1
aI0
aI1
aI0
aI0
aI0
aI0
aI1
aI2
aa(lp383
I2
aI1
aI1
aI1
aI0
aI2
aI0
aI1
aI0
aI0
aI0
aI1
aa(lp384
I2
aI1
aI1
aI1
aI0
aI2
aI0
aI0
aI0
aI2
aI1
aI0
aa(lp385
I2
aI1
aI0
aI1
aI2
aI1
aI0
aI0
aI0
aI2
aI0
aI0
aa(lp386
I2
aI1
aI0
aI1
aI0
aI1
aI0
aI0
aI0
aI2
aI2
aI0
aa(lp387
I2
aI1
aI1
aI1
aI0
aI1
aI0
aI0
aI0
aI1
aI1
aI1
aa(lp388
I2
aI1
aI1
aI1
aI0
aI2
aI0
aI1
aI0
aI1
aI1
aI1
aa(lp389
I2
aI1
aI1
aI1
aI0
aI1
aI0
aI0
aI0
aI1
aI1
aI1
aa(lp390
I2
aI1
aI1
aI1
aI2
aI2
aI0
aI0
aI0
aI2
aI0
aI0
aa(lp391
I1
aI1
aI1
aI1
aI0
aI1
aI0
aI0
aI0
aI1
aI1
aI1
aa(lp392
I2
aI1
aI1
aI1
aI2
aI1
aI1
aI1
aI0
aI2
aI1
aI0
aa(lp393
I2
aI1
aI1
aI1
aI2
aI1
aI0
aI0
aI0
aI2
aI2
aI0
aa(lp394
I2
aI1
aI1
aI1
aI0
aI1
aI0
aI0
aI0
aI0
aI0
aI0
aa(lp395
I2
aI1
aI1
aI1
aI2
aI1
aI0
aI0
aI0
aI0
aI0
aI0
aa(lp396
I2
aI1
aI1
aI1
aI2
aI2
aI1
aI1
aI0
aI2
aI0
aI0
aa(lp397
I1
aI1
aI1
aI1
aI0
aI2
aI0
aI0
aI0
aI0
aI0
aI0
aa(lp398
I2
aI1
aI0
aI1
aI0
aI1
aI0
aI0
aI0
aI2
aI0
aI0
aa(lp399
I1
aI1
aI0
aI1
aI2
aI2
aI0
aI0
aI0
aI2
aI0
aI0
aa(lp400
I2
aI1
aI1
aI1
aI0
aI1
aI0
aI0
aI0
aI0
aI0
aI0
aa(lp401
I1
aI1
aI1
aI1
aI2
aI2
aI0
aI0
aI0
aI0
aI0
aI0
aa(lp402
I2
aI1
aI1
aI1
aI2
aI2
aI0
aI1
aI0
aI0
aI0
aI0
aa(lp403
I1
aI1
aI1
aI3
aI1
aI2
aI0
aI0
aI0
aI2
aI2
aI2
aa(lp404
I1
aI1
aI1
aI3
aI0
aI1
aI0
aI0
aI0
aI0
aI2
aI2
aa(lp405
I1
aI1
aI0
aI1
aI0
aI1
aI0
aI0
aI0
aI2
aI1
aI0
aa(lp406
I1
aI1
aI1
aI0
aI0
aI2
aI0
aI0
aI0
aI2
aI0
aI0
aa(lp407
I2
aI1
aI1
aI0
aI0
aI2
aI0
aI0
aI0
aI0
aI0
aI0
aa(lp408
I0
aI1
aI1
aI1
aI0
aI2
aI1
aI0
aI0
aI2
aI0
aI0
aa(lp409
I2
aI1
aI1
aI1
aI2
aI1
aI0
aI0
aI0
aI1
aI0
aI0
aa(lp410
I2
aI1
aI1
aI1
aI0
aI2
aI1
aI0
aI0
aI0
aI0
aI1
aa(lp411
I1
aI1
aI1
aI3
aI1
aI1
aI0
aI0
aI0
aI0
aI0
aI0
aa(lp412
I2
aI1
aI1
aI3
aI0
aI1
aI0
aI0
aI0
aI2
aI2
aI0
aa(lp413
I1
aI1
aI1
aI3
aI0
aI1
aI0
aI0
aI0
aI1
aI1
aI1
aa(lp414
I2
aI1
aI1
aI1
aI0
aI1
aI0
aI0
aI0
aI2
aI2
aI0
aa(lp415
I1
aI1
aI1
aI1
aI0
aI2
aI0
aI0
aI0
aI0
aI0
aI0
aa(lp416
I1
aI1
aI1
aI1
aI2
aI2
aI1
aI0
aI0
aI0
aI0
aI0
aa(lp417
I2
aI1
aI1
aI1
aI0
aI1
aI1
aI2
aI0
aI2
aI2
aI2
aa(lp418
I2
aI1
aI1
aI1
aI0
aI1
aI0
aI0
aI0
aI2
aI2
aI2
aa(lp419
I0
aI1
aI1
aI1
aI2
aI2
aI1
aI2
aI0
aI0
aI0
aI2
aa(lp420
I1
aI1
aI1
aI1
aI0
aI2
aI0
aI0
aI0
aI0
aI0
aI0
aa(lp421
I1
aI1
aI1
aI1
aI0
aI2
aI0
aI1
aI0
aI0
aI0
aI0
aa(lp422
I1
aI1
aI1
aI1
aI2
aI1
aI0
aI0
aI0
aI0
aI0
aI1
aa.