(lp0
(lp1
I1
aI0
aI0
aI0
aI1
aI1
aI1
aI3
aI0
aI0
aI0
aI0
aa(lp2
I1
aI0
aI1
aI0
aI1
aI1
aI0
aI1
aI1
aI0
aI0
aI0
aa(lp3
I1
aI0
aI1
aI0
aI1
aI1
aI0
aI3
aI0
aI0
aI0
aI0
aa(lp4
I1
aI0
aI1
aI0
aI1
aI1
aI1
aI3
aI0
aI0
aI0
aI0
aa(lp5
I1
aI0
aI1
aI0
aI2
aI1
aI0
aI1
aI0
aI0
aI2
aI0
aa(lp6
I1
aI0
aI0
aI0
aI1
aI1
aI0
aI1
aI0
aI0
aI2
aI0
aa(lp7
I1
aI0
aI0
aI0
aI1
aI1
aI0
aI1
aI0
aI0
aI0
aI0
aa(lp8
I1
aI0
aI0
aI0
aI4
aI0
aI0
aI3
aI0
aI0
aI0
aI2
aa(lp9
I1
aI1
aI4
aI0
aI1
aI1
aI1
aI3
aI1
aI0
aI0
aI0
aa(lp10
I1
aI0
aI0
aI0
aI1
aI1
aI0
aI1
aI0
aI0
aI0
aI0
aa(lp11
I1
aI0
aI0
aI0
aI3
aI1
aI0
aI1
aI0
aI0
aI2
aI0
aa(lp12
I1
aI1
aI4
aI0
aI1
aI1
aI1
aI3
aI0
aI0
aI2
aI2
aa(lp13
I1
aI0
aI1
aI0
aI1
aI1
aI0
aI1
aI0
aI0
aI0
aI0
aa(lp14
I1
aI0
aI1
aI0
aI1
aI1
aI0
aI1
aI0
aI0
aI0
aI0
aa(lp15
I1
aI0
aI0
aI0
aI4
aI0
aI0
aI3
aI0
aI0
aI2
aI2
aa(lp16
I1
aI0
aI1
aI0
aI1
aI1
aI0
aI3
aI1
aI0
aI2
aI2
aa(lp17
I1
aI0
aI1
aI0
aI1
aI0
aI0
aI2
aI1
aI0
aI0
aI0
aa(lp18
I1
aI0
aI1
aI0
aI4
aI1
aI0
aI2
aI1
aI0
aI0
aI0
aa(lp19
I1
aI0
aI1
aI0
aI1
aI1
aI0
aI1
aI1
aI0
aI0
aI0
aa(lp20
I1
aI0
aI1
aI0
aI1
aI1
aI0
aI1
aI0
aI0
aI2
aI2
aa(lp21
I1
aI0
aI0
aI0
aI1
aI1
aI0
aI1
aI0
aI0
aI0
aI0
aa(lp22
I1
aI0
aI0
aI0
aI1
aI1
aI0
aI1
aI0
aI0
aI0
aI0
aa(lp23
I1
aI0
aI0
aI0
aI4
aI1
aI0
aI1
aI1
aI0
aI0
aI0
aa(lp24
I1
aI0
aI0
aI0
aI1
aI1
aI1
aI3
aI0
aI0
aI2
aI2
aa(lp25
I1
aI0
aI1
aI0
aI4
aI1
aI0
aI3
aI0
aI0
aI0
aI0
aa(lp26
I1
aI2
aI4
aI0
aI4
aI0
aI1
aI3
aI0
aI0
aI2
aI0
aa(lp27
I1
aI0
aI2
aI0
aI1
aI0
aI1
aI3
aI0
aI0
aI0
aI0
aa(lp28
I1
aI3
aI4
aI1
aI5
aI1
aI1
aI3
aI0
aI0
aI0
aI0
aa(lp29
I1
aI1
aI4
aI0
aI1
aI0
aI1
aI3
aI0
aI0
aI2
aI2
aa(lp30
I1
aI0
aI0
aI3
aI1
aI0
aI0
aI1
aI0
aI0
aI0
aI0
aa(lp31
I1
aI3
aI4
aI0
aI1
aI1
aI0
aI1
aI0
aI0
aI2
aI0
aa(lp32
I1
aI1
aI4
aI0
aI1
aI1
aI1
aI3
aI0
aI0
aI0
aI0
aa(lp33
I1
aI0
aI0
aI1
aI5
aI1
aI1
aI3
aI0
aI0
aI0
aI0
aa(lp34
I1
aI0
aI0
aI0
aI1
aI1
aI0
aI3
aI0
aI0
aI0
aI0
aa(lp35
I1
aI0
aI0
aI0
aI1
aI1
aI0
aI1
aI1
aI0
aI2
aI0
aa(lp36
I1
aI0
aI0
aI0
aI1
aI1
aI0
aI2
aI0
aI0
aI0
aI0
aa(lp37
I1
aI0
aI1
aI0
aI1
aI0
aI0
aI1
aI1
aI0
aI0
aI0
aa(lp38
I1
aI0
aI0
aI0
aI1
aI1
aI0
aI1
aI0
aI0
aI2
aI0
aa(lp39
I1
aI0
aI2
aI0
aI1
aI0
aI0
aI2
aI1
aI0
aI0
aI0
aa(lp40
I1
aI1
aI4
aI0
aI1
aI1
aI1
aI3
aI1
aI0
aI2
aI0
aa(lp41
I1
aI0
aI0
aI0
aI1
aI1
aI0
aI3
aI1
aI0
aI0
aI0
aa(lp42
I1
aI0
aI1
aI0
aI1
aI1
aI0
aI3
aI1
aI0
aI0
aI0
aa(lp43
I1
aI0
aI0
aI0
aI1
aI1
aI0
aI1
aI0
aI0
aI2
aI0
aa(lp44
I1
aI0
aI1
aI0
aI1
aI1
aI0
aI3
aI1
aI0
aI0
aI0
aa(lp45
I1
aI0
aI0
aI0
aI1
aI1
aI0
aI1
aI1
aI0
aI0
aI0
aa(lp46
I1
aI0
aI1
aI0
aI1
aI1
aI0
aI1
aI0
aI0
aI0
aI0
aa(lp47
I1
aI0
aI1
aI0
aI1
aI1
aI0
aI1
aI1
aI0
aI0
aI0
aa(lp48
I1
aI0
aI1
aI0
aI4
aI0
aI0
aI2
aI1
aI0
aI2
aI0
aa(lp49
I1
aI0
aI0
aI0
aI1
aI1
aI0
aI1
aI1
aI0
aI0
aI0
aa(lp50
I1
aI0
aI0
aI0
aI4
aI0
aI0
aI3
aI0
aI0
aI0
aI0
aa(lp51
I1
aI0
aI0
aI0
aI1
aI1
aI0
aI1
aI1
aI0
aI0
aI0
aa(lp52
I1
aI0
aI4
aI0
aI3
aI1
aI1
aI3
aI0
aI0
aI0
aI0
aa(lp53
I1
aI0
aI0
aI0
aI1
aI0
aI0
aI3
aI0
aI0
aI2
aI0
aa(lp54
I1
aI0
aI0
aI0
aI1
aI1
aI0
aI3
aI0
aI0
aI0
aI0
aa(lp55
I1
aI0
aI0
aI0
aI1
aI0
aI4
aI3
aI0
aI0
aI0
aI2
aa(lp56
I1
aI0
aI1
aI0
aI1
aI1
aI0
aI2
aI1
aI0
aI2
aI0
aa(lp57
I1
aI0
aI1
aI0
aI1
aI1
aI0
aI1
aI0
aI0
aI0
aI0
aa(lp58
I1
aI0
aI1
aI0
aI1
aI1
aI0
aI3
aI0
aI0
aI0
aI0
aa(lp59
I1
aI0
aI1
aI0
aI1
aI1
aI0
aI1
aI1
aI0
aI0
aI0
aa(lp60
I1
aI0
aI0
aI0
aI1
aI1
aI0
aI1
aI1
aI0
aI2
aI0
aa(lp61
I1
aI0
aI0
aI0
aI1
aI1
aI0
aI3
aI0
aI0
aI2
aI2
aa(lp62
I1
aI0
aI1
aI0
aI4
aI1
aI0
aI1
aI1
aI0
aI0
aI0
aa(lp63
I1
aI0
aI0
aI3
aI5
aI0
aI0
aI3
aI0
aI0
aI2
aI0
aa(lp64
I1
aI0
aI0
aI0
aI1
aI1
aI0
aI3
aI0
aI0
aI0
aI0
aa(lp65
I1
aI0
aI0
aI0
aI1
aI1
aI0
aI3
aI0
aI0
aI0
aI0
aa(lp66
I1
aI0
aI0
aI0
aI0
aI1
aI3
aI3
aI1
aI0
aI0
aI0
aa(lp67
I1
aI0
aI2
aI0
aI1
aI1
aI0
aI2
aI1
aI0
aI2
aI0
aa(lp68
I1
aI0
aI0
aI0
aI1
aI1
aI0
aI1
aI0
aI0
aI2
aI2
aa(lp69
I1
aI0
aI0
aI0
aI4
aI1
aI1
aI3
aI1
aI0
aI0
aI2
aa(lp70
I1
aI0
aI0
aI0
aI1
aI1
aI0
aI2
aI1
aI0
aI0
aI0
aa(lp71
I1
aI0
aI1
aI0
aI1
aI1
aI0
aI1
aI1
aI0
aI0
aI0
aa(lp72
I1
aI0
aI0
aI1
aI5
aI1
aI0
aI1
aI0
aI0
aI0
aI0
aa(lp73
I1
aI5
aI1
aI0
aI4
aI0
aI0
aI1
aI0
aI0
aI0
aI0
aa(lp74
I1
aI0
aI0
aI0
aI1
aI1
aI0
aI1
aI1
aI0
aI0
aI0
aa(lp75
I1
aI0
aI0
aI0
aI1
aI1
aI4
aI3
aI0
aI0
aI2
aI2
aa(lp76
I1
aI0
aI1
aI0
aI1
aI1
aI0
aI1
aI1
aI0
aI2
aI0
aa(lp77
I1
aI0
aI0
aI0
aI4
aI0
aI0
aI1
aI0
aI0
aI2
aI0
aa(lp78
I1
aI0
aI0
aI0
aI1
aI1
aI0
aI3
aI0
aI0
aI0
aI0
aa(lp79
I1
aI0
aI0
aI0
aI1
aI1
aI0
aI3
aI0
aI0
aI2
aI0
aa(lp80
I1
aI0
aI0
aI0
aI1
aI1
aI0
aI1
aI0
aI0
aI0
aI0
aa(lp81
I1
aI0
aI1
aI0
aI1
aI1
aI0
aI1
aI1
aI0
aI0
aI0
aa(lp82
I1
aI0
aI0
aI0
aI1
aI1
aI0
aI1
aI0
aI0
aI0
aI0
aa(lp83
I1
aI0
aI1
aI0
aI1
aI1
aI0
aI3
aI0
aI0
aI0
aI0
aa(lp84
I1
aI0
aI0
aI1
aI5
aI1
aI0
aI1
aI0
aI0
aI0
aI0
aa(lp85
I1
aI0
aI1
aI0
aI1
aI1
aI0
aI1
aI0
aI0
aI0
aI0
aa(lp86
I1
aI0
aI1
aI0
aI1
aI1
aI0
aI1
aI0
aI0
aI2
aI0
aa(lp87
I1
aI0
aI1
aI0
aI1
aI1
aI0
aI1
aI0
aI0
aI0
aI0
aa(lp88
I1
aI0
aI1
aI0
aI1
aI1
aI0
aI1
aI1
aI0
aI2
aI0
aa(lp89
I1
aI0
aI1
aI0
aI4
aI0
aI1
aI3
aI0
aI0
aI0
aI0
aa(lp90
I1
aI0
aI1
aI1
aI5
aI1
aI1
aI3
aI0
aI0
aI0
aI0
aa(lp91
I1
aI0
aI0
aI0
aI1
aI1
aI0
aI3
aI1
aI0
aI2
aI0
aa(lp92
I1
aI0
aI1
aI0
aI1
aI0
aI0
aI1
aI1
aI0
aI0
aI0
aa(lp93
I1
aI2
aI4
aI1
aI5
aI1
aI0
aI1
aI0
aI0
aI0
aI0
aa(lp94
I1
aI0
aI0
aI3
aI5
aI0
aI0
aI3
aI0
aI0
aI2
aI0
aa(lp95
I1
aI0
aI1
aI0
aI1
aI1
aI0
aI2
aI0
aI0
aI0
aI0
aa(lp96
I1
aI0
aI2
aI0
aI2
aI1
aI1
aI2
aI1
aI0
aI2
aI0
aa(lp97
I1
aI0
aI0
aI0
aI1
aI1
aI0
aI3
aI0
aI0
aI2
aI0
aa(lp98
I1
aI0
aI0
aI0
aI4
aI1
aI0
aI3
aI0
aI0
aI0
aI0
aa(lp99
I1
aI0
aI1
aI0
aI4
aI1
aI0
aI3
aI0
aI0
aI0
aI0
aa(lp100
I1
aI0
aI0
aI0
aI4
aI1
aI0
aI1
aI0
aI0
aI0
aI0
aa(lp101
I1
aI0
aI0
aI0
aI1
aI1
aI0
aI1
aI0
aI0
aI2
aI0
aa(lp102
I1
aI0
aI1
aI0
aI1
aI1
aI0
aI1
aI0
aI0
aI0
aI0
aa(lp103
I1
aI0
aI0
aI0
aI1
aI1
aI0
aI3
aI0
aI0
aI2
aI0
aa(lp104
I1
aI0
aI0
aI0
aI1
aI0
aI0
aI1
aI0
aI0
aI0
aI0
aa(lp105
I1
aI1
aI4
aI0
aI1
aI1
aI0
aI1
aI0
aI0
aI0
aI0
aa(lp106
I1
aI0
aI0
aI0
aI1
aI1
aI0
aI3
aI0
aI0
aI2
aI0
aa(lp107
I1
aI3
aI4
aI0
aI1
aI0
aI0
aI1
aI0
aI0
aI0
aI0
aa(lp108
I1
aI0
aI1
aI0
aI1
aI1
aI0
aI3
aI1
aI0
aI2
aI2
aa(lp109
I1
aI0
aI0
aI1
aI5
aI0
aI1
aI3
aI0
aI0
aI2
aI0
aa(lp110
I1
aI0
aI2
aI0
aI1
aI1
aI0
aI3
aI1
aI0
aI0
aI0
aa(lp111
I1
aI0
aI1
aI0
aI1
aI1
aI0
aI1
aI0
aI0
aI0
aI0
aa(lp112
I1
aI0
aI0
aI0
aI4
aI1
aI0
aI3
aI0
aI0
aI0
aI2
aa(lp113
I1
aI0
aI1
aI0
aI4
aI1
aI1
aI3
aI0
aI0
aI0
aI2
aa(lp114
I1
aI0
aI0
aI0
aI1
aI1
aI1
aI3
aI0
aI0
aI0
aI0
aa(lp115
I1
aI0
aI1
aI0
aI1
aI1
aI0
aI1
aI1
aI0
aI2
aI0
aa(lp116
I1
aI0
aI0
aI0
aI1
aI1
aI0
aI2
aI0
aI0
aI0
aI0
aa(lp117
I1
aI0
aI0
aI0
aI1
aI1
aI3
aI3
aI1
aI0
aI0
aI0
aa(lp118
I1
aI1
aI4
aI0
aI4
aI1
aI0
aI3
aI1
aI0
aI0
aI2
aa(lp119
I1
aI0
aI1
aI0
aI1
aI1
aI0
aI2
aI1
aI0
aI2
aI0
aa(lp120
I1
aI0
aI0
aI0
aI1
aI0
aI1
aI3
aI0
aI0
aI1
aI0
aa(lp121
I1
aI0
aI1
aI0
aI1
aI1
aI0
aI3
aI0
aI0
aI0
aI2
aa(lp122
I1
aI5
aI1
aI0
aI5
aI1
aI1
aI3
aI0
aI0
aI0
aI0
aa(lp123
I1
aI0
aI0
aI0
aI1
aI1
aI0
aI2
aI0
aI0
aI2
aI0
aa(lp124
I1
aI0
aI1
aI0
aI4
aI0
aI0
aI1
aI0
aI0
aI0
aI1
aa(lp125
I1
aI0
aI2
aI0
aI1
aI0
aI0
aI2
aI1
aI0
aI2
aI0
aa(lp126
I1
aI0
aI0
aI0
aI1
aI1
aI0
aI3
aI0
aI0
aI0
aI0
aa(lp127
I1
aI0
aI0
aI0
aI4
aI1
aI0
aI1
aI1
aI0
aI0
aI0
aa(lp128
I1
aI0
aI0
aI0
aI1
aI0
aI1
aI3
aI0
aI0
aI0
aI0
aa(lp129
I1
aI2
aI4
aI0
aI1
aI1
aI2
aI3
aI1
aI0
aI0
aI0
aa(lp130
I1
aI1
aI4
aI0
aI4
aI1
aI0
aI2
aI1
aI0
aI0
aI0
aa(lp131
I1
aI0
aI1
aI1
aI5
aI1
aI0
aI3
aI0
aI0
aI0
aI0
aa(lp132
I1
aI0
aI1
aI0
aI1
aI1
aI0
aI3
aI1
aI0
aI2
aI0
aa(lp133
I1
aI2
aI4
aI0
aI1
aI1
aI0
aI1
aI0
aI0
aI0
aI2
aa(lp134
I1
aI0
aI0
aI0
aI1
aI1
aI0
aI3
aI1
aI0
aI1
aI0
aa(lp135
I1
aI0
aI0
aI0
aI4
aI0
aI1
aI3
aI0
aI0
aI0
aI0
aa(lp136
I1
aI0
aI1
aI0
aI1
aI1
aI0
aI1
aI0
aI0
aI0
aI0
aa(lp137
I1
aI3
aI4
aI0
aI1
aI1
aI3
aI3
aI1
aI0
aI0
aI0
aa(lp138
I1
aI0
aI0
aI0
aI1
aI1
aI0
aI3
aI0
aI0
aI0
aI0
aa(lp139
I1
aI0
aI1
aI0
aI1
aI1
aI0
aI1
aI1
aI0
aI2
aI2
aa(lp140
I1
aI0
aI1
aI0
aI4
aI1
aI0
aI1
aI0
aI0
aI2
aI2
aa(lp141
I1
aI0
aI2
aI0
aI1
aI1
aI0
aI1
aI1
aI0
aI0
aI0
aa(lp142
I1
aI0
aI1
aI0
aI1
aI1
aI0
aI2
aI1
aI0
aI2
aI2
aa(lp143
I1
aI4
aI4
aI0
aI4
aI1
aI4
aI3
aI0
aI0
aI0
aI0
aa(lp144
I1
aI0
aI0
aI0
aI1
aI1
aI0
aI1
aI0
aI0
aI0
aI0
aa(lp145
I1
aI0
aI1
aI0
aI1
aI1
aI0
aI1
aI0
aI0
aI0
aI0
aa(lp146
I1
aI0
aI0
aI0
aI4
aI1
aI1
aI3
aI1
aI0
aI0
aI0
aa(lp147
I1
aI0
aI1
aI0
aI4
aI1
aI0
aI2
aI0
aI0
aI0
aI0
aa(lp148
I1
aI0
aI2
aI0
aI4
aI1
aI0
aI3
aI0
aI0
aI0
aI0
aa(lp149
I1
aI0
aI1
aI0
aI1
aI1
aI0
aI2
aI1
aI0
aI0
aI0
aa(lp150
I1
aI0
aI0
aI0
aI1
aI1
aI0
aI3
aI1
aI0
aI0
aI0
aa(lp151
I1
aI0
aI1
aI0
aI1
aI0
aI0
aI3
aI0
aI0
aI0
aI0
aa(lp152
I1
aI0
aI0
aI0
aI1
aI1
aI1
aI3
aI0
aI0
aI0
aI2
aa(lp153
I1
aI0
aI0
aI0
aI1
aI1
aI0
aI3
aI0
aI0
aI2
aI2
aa(lp154
I1
aI0
aI1
aI0
aI1
aI1
aI0
aI1
aI0
aI0
aI0
aI0
aa(lp155
I1
aI0
aI1
aI0
aI4
aI1
aI0
aI3
aI0
aI0
aI0
aI0
aa(lp156
I1
aI0
aI4
aI0
aI1
aI1
aI0
aI3
aI0
aI0
aI0
aI0
aa(lp157
I1
aI0
aI0
aI1
aI5
aI1
aI0
aI2
aI1
aI0
aI0
aI0
aa(lp158
I1
aI0
aI0
aI0
aI3
aI1
aI0
aI3
aI0
aI0
aI0
aI0
aa(lp159
I1
aI1
aI4
aI0
aI1
aI1
aI0
aI2
aI0
aI0
aI0
aI0
aa(lp160
I1
aI0
aI1
aI0
aI4
aI0
aI0
aI3
aI0
aI0
aI0
aI0
aa(lp161
I1
aI0
aI0
aI0
aI1
aI1
aI0
aI1
aI0
aI0
aI2
aI0
aa(lp162
I1
aI0
aI2
aI0
aI1
aI1
aI0
aI2
aI1
aI0
aI2
aI0
aa(lp163
I1
aI0
aI1
aI0
aI1
aI1
aI3
aI3
aI1
aI0
aI0
aI0
aa(lp164
I1
aI3
aI4
aI0
aI4
aI1
aI3
aI3
aI1
aI0
aI0
aI0
aa(lp165
I1
aI0
aI0
aI0
aI4
aI1
aI0
aI3
aI0
aI0
aI0
aI0
aa(lp166
I1
aI0
aI0
aI0
aI4
aI1
aI0
aI1
aI0
aI0
aI2
aI0
aa(lp167
I1
aI0
aI0
aI0
aI4
aI0
aI0
aI1
aI0
aI0
aI2
aI0
aa(lp168
I1
aI0
aI1
aI1
aI5
aI1
aI0
aI2
aI0
aI0
aI0
aI0
aa(lp169
I1
aI1
aI4
aI3
aI5
aI0
aI0
aI3
aI0
aI0
aI2
aI0
aa(lp170
I1
aI0
aI1
aI0
aI2
aI1
aI0
aI1
aI0
aI0
aI2
aI0
aa(lp171
I1
aI0
aI0
aI0
aI1
aI1
aI0
aI2
aI1
aI0
aI0
aI0
aa(lp172
I1
aI0
aI0
aI0
aI1
aI1
aI0
aI3
aI0
aI0
aI0
aI1
aa(lp173
I1
aI0
aI0
aI1
aI5
aI1
aI0
aI1
aI0
aI0
aI0
aI0
aa(lp174
I1
aI0
aI2
aI0
aI1
aI1
aI0
aI3
aI0
aI0
aI1
aI0
aa(lp175
I1
aI0
aI1
aI0
aI4
aI0
aI0
aI1
aI0
aI0
aI0
aI0
aa(lp176
I1
aI0
aI0
aI0
aI4
aI1
aI0
aI3
aI0
aI0
aI0
aI0
aa(lp177
I1
aI0
aI0
aI0
aI1
aI1
aI1
aI3
aI0
aI0
aI2
aI0
aa(lp178
I1
aI3
aI4
aI1
aI5
aI1
aI1
aI3
aI0
aI0
aI0
aI0
aa.