(lp0
(lp1
I1
aI0
aI0
aI0
aI1
aI1
aI1
aI3
aI0
aI0
aI0
aI0
aI1
aa(lp2
I1
aI0
aI1
aI0
aI1
aI1
aI0
aI1
aI1
aI0
aI0
aI0
aI1
aa(lp3
I1
aI0
aI1
aI0
aI1
aI1
aI0
aI3
aI0
aI0
aI0
aI0
aI1
aa(lp4
I1
aI0
aI1
aI0
aI1
aI1
aI1
aI3
aI0
aI0
aI0
aI0
aI1
aa(lp5
I1
aI0
aI1
aI0
aI2
aI1
aI0
aI1
aI0
aI0
aI2
aI0
aI1
aa(lp6
I1
aI0
aI0
aI0
aI1
aI1
aI0
aI1
aI0
aI0
aI2
aI0
aI1
aa(lp7
I1
aI0
aI0
aI0
aI1
aI1
aI0
aI1
aI0
aI0
aI0
aI0
aI1
aa(lp8
I1
aI0
aI0
aI0
aI4
aI0
aI0
aI3
aI0
aI0
aI0
aI2
aI1
aa(lp9
I1
aI1
aI4
aI0
aI1
aI1
aI1
aI3
aI1
aI0
aI0
aI0
aI1
aa(lp10
I1
aI0
aI0
aI0
aI1
aI1
aI0
aI1
aI0
aI0
aI0
aI0
aI1
aa(lp11
I1
aI0
aI0
aI0
aI3
aI1
aI0
aI1
aI0
aI0
aI2
aI0
aI1
aa(lp12
I1
aI1
aI4
aI0
aI1
aI1
aI1
aI3
aI0
aI0
aI2
aI2
aI1
aa(lp13
I1
aI0
aI1
aI0
aI1
aI1
aI0
aI1
aI0
aI0
aI0
aI0
aI1
aa(lp14
I1
aI0
aI1
aI0
aI1
aI1
aI0
aI1
aI0
aI0
aI0
aI0
aI1
aa(lp15
I1
aI0
aI0
aI0
aI4
aI0
aI0
aI3
aI0
aI0
aI2
aI2
aI1
aa(lp16
I1
aI0
aI1
aI0
aI1
aI1
aI0
aI3
aI1
aI0
aI2
aI2
aI1
aa(lp17
I1
aI0
aI1
aI0
aI1
aI0
aI0
aI2
aI1
aI0
aI0
aI0
aI1
aa(lp18
I1
aI0
aI1
aI0
aI4
aI1
aI0
aI2
aI1
aI0
aI0
aI0
aI1
aa(lp19
I1
aI0
aI1
aI0
aI1
aI1
aI0
aI1
aI1
aI0
aI0
aI0
aI1
aa(lp20
I1
aI0
aI1
aI0
aI1
aI1
aI0
aI1
aI0
aI0
aI2
aI2
aI1
aa(lp21
I1
aI0
aI0
aI0
aI1
aI1
aI0
aI1
aI0
aI0
aI0
aI0
aI1
aa(lp22
I1
aI0
aI0
aI0
aI1
aI1
aI0
aI1
aI0
aI0
aI0
aI0
aI1
aa(lp23
I1
aI0
aI0
aI0
aI4
aI1
aI0
aI1
aI1
aI0
aI0
aI0
aI1
aa(lp24
I1
aI0
aI0
aI0
aI1
aI1
aI1
aI3
aI0
aI0
aI2
aI2
aI1
aa(lp25
I1
aI0
aI1
aI0
aI4
aI1
aI0
aI3
aI0
aI0
aI0
aI0
aI1
aa(lp26
I1
aI2
aI4
aI0
aI4
aI0
aI1
aI3
aI0
aI0
aI2
aI0
aI1
aa(lp27
I1
aI0
aI2
aI0
aI1
aI0
aI1
aI3
aI0
aI0
aI0
aI0
aI1
aa(lp28
I1
aI3
aI4
aI1
aI5
aI1
aI1
aI3
aI0
aI0
aI0
aI0
aI1
aa(lp29
I1
aI1
aI4
aI0
aI1
aI0
aI1
aI3
aI0
aI0
aI2
aI2
aI1
aa(lp30
I1
aI0
aI0
aI3
aI1
aI0
aI0
aI1
aI0
aI0
aI0
aI0
aI1
aa(lp31
I1
aI3
aI4
aI0
aI1
aI1
aI0
aI1
aI0
aI0
aI2
aI0
aI1
aa(lp32
I1
aI1
aI4
aI0
aI1
aI1
aI1
aI3
aI0
aI0
aI0
aI0
aI1
aa(lp33
I1
aI0
aI0
aI1
aI5
aI1
aI1
aI3
aI0
aI0
aI0
aI0
aI1
aa(lp34
I1
aI0
aI0
aI0
aI1
aI1
aI0
aI3
aI0
aI0
aI0
aI0
aI1
aa(lp35
I1
aI0
aI0
aI0
aI1
aI1
aI0
aI1
aI1
aI0
aI2
aI0
aI1
aa(lp36
I1
aI0
aI0
aI0
aI1
aI1
aI0
aI2
aI0
aI0
aI0
aI0
aI1
aa(lp37
I1
aI0
aI1
aI0
aI1
aI0
aI0
aI1
aI1
aI0
aI0
aI0
aI1
aa(lp38
I1
aI0
aI0
aI0
aI1
aI1
aI0
aI1
aI0
aI0
aI2
aI0
aI1
aa(lp39
I1
aI0
aI2
aI0
aI1
aI0
aI0
aI2
aI1
aI0
aI0
aI0
aI1
aa(lp40
I1
aI1
aI4
aI0
aI1
aI1
aI1
aI3
aI1
aI0
aI2
aI0
aI1
aa(lp41
I1
aI0
aI0
aI0
aI1
aI1
aI0
aI3
aI1
aI0
aI0
aI0
aI1
aa(lp42
I1
aI0
aI1
aI0
aI1
aI1
aI0
aI3
aI1
aI0
aI0
aI0
aI1
aa(lp43
I1
aI0
aI0
aI0
aI1
aI1
aI0
aI1
aI0
aI0
aI2
aI0
aI1
aa(lp44
I1
aI0
aI1
aI0
aI1
aI1
aI0
aI3
aI1
aI0
aI0
aI0
aI1
aa(lp45
I1
aI0
aI0
aI0
aI1
aI1
aI0
aI1
aI1
aI0
aI0
aI0
aI1
aa(lp46
I1
aI0
aI1
aI0
aI1
aI1
aI0
aI1
aI0
aI0
aI0
aI0
aI1
aa(lp47
I1
aI0
aI1
aI0
aI1
aI1
aI0
aI1
aI1
aI0
aI0
aI0
aI1
aa(lp48
I1
aI0
aI1
aI0
aI4
aI0
aI0
aI2
aI1
aI0
aI2
aI0
aI1
aa(lp49
I1
aI0
aI0
aI0
aI1
aI1
aI0
aI1
aI1
aI0
aI0
aI0
aI1
aa(lp50
I1
aI0
aI0
aI0
aI4
aI0
aI0
aI3
aI0
aI0
aI0
aI0
aI1
aa(lp51
I1
aI0
aI0
aI0
aI1
aI1
aI0
aI1
aI1
aI0
aI0
aI0
aI1
aa(lp52
I1
aI0
aI4
aI0
aI3
aI1
aI1
aI3
aI0
aI0
aI0
aI0
aI1
aa(lp53
I1
aI0
aI0
aI0
aI1
aI0
aI0
aI3
aI0
aI0
aI2
aI0
aI1
aa(lp54
I1
aI0
aI0
aI0
aI1
aI1
aI0
aI3
aI0
aI0
aI0
aI0
aI1
aa(lp55
I1
aI0
aI0
aI0
aI1
aI0
aI4
aI3
aI0
aI0
aI0
aI2
aI1
aa(lp56
I1
aI0
aI1
aI0
aI1
aI1
aI0
aI2
aI1
aI0
aI2
aI0
aI1
aa(lp57
I1
aI0
aI1
aI0
aI1
aI1
aI0
aI1
aI0
aI0
aI0
aI0
aI1
aa(lp58
I1
aI0
aI1
aI0
aI1
aI1
aI0
aI3
aI0
aI0
aI0
aI0
aI1
aa(lp59
I1
aI0
aI1
aI0
aI1
aI1
aI0
aI1
aI1
aI0
aI0
aI0
aI1
aa(lp60
I1
aI0
aI0
aI0
aI1
aI1
aI0
aI1
aI1
aI0
aI2
aI0
aI1
aa(lp61
I1
aI0
aI0
aI0
aI1
aI1
aI0
aI3
aI0
aI0
aI2
aI2
aI1
aa(lp62
I1
aI0
aI1
aI0
aI4
aI1
aI0
aI1
aI1
aI0
aI0
aI0
aI1
aa(lp63
I1
aI0
aI0
aI3
aI5
aI0
aI0
aI3
aI0
aI0
aI2
aI0
aI1
aa(lp64
I1
aI0
aI0
aI0
aI1
aI1
aI0
aI3
aI0
aI0
aI0
aI0
aI1
aa(lp65
I1
aI0
aI0
aI0
aI1
aI1
aI0
aI3
aI0
aI0
aI0
aI0
aI1
aa(lp66
I1
aI0
aI0
aI0
aI0
aI1
aI3
aI3
aI1
aI0
aI0
aI0
aI1
aa(lp67
I1
aI0
aI2
aI0
aI1
aI1
aI0
aI2
aI1
aI0
aI2
aI0
aI1
aa(lp68
I1
aI0
aI0
aI0
aI1
aI1
aI0
aI1
aI0
aI0
aI2
aI2
aI1
aa(lp69
I1
aI0
aI0
aI0
aI4
aI1
aI1
aI3
aI1
aI0
aI0
aI2
aI1
aa(lp70
I1
aI0
aI0
aI0
aI1
aI1
aI0
aI2
aI1
aI0
aI0
aI0
aI1
aa(lp71
I1
aI0
aI1
aI0
aI1
aI1
aI0
aI1
aI1
aI0
aI0
aI0
aI1
aa(lp72
I1
aI0
aI0
aI1
aI5
aI1
aI0
aI1
aI0
aI0
aI0
aI0
aI1
aa(lp73
I1
aI5
aI1
aI0
aI4
aI0
aI0
aI1
aI0
aI0
aI0
aI0
aI1
aa(lp74
I1
aI0
aI0
aI0
aI1
aI1
aI0
aI1
aI1
aI0
aI0
aI0
aI1
aa(lp75
I1
aI0
aI0
aI0
aI1
aI1
aI4
aI3
aI0
aI0
aI2
aI2
aI1
aa(lp76
I1
aI0
aI1
aI0
aI1
aI1
aI0
aI1
aI1
aI0
aI2
aI0
aI1
aa(lp77
I1
aI0
aI0
aI0
aI4
aI0
aI0
aI1
aI0
aI0
aI2
aI0
aI1
aa(lp78
I1
aI0
aI0
aI0
aI1
aI1
aI0
aI3
aI0
aI0
aI0
aI0
aI1
aa(lp79
I1
aI0
aI0
aI0
aI1
aI1
aI0
aI3
aI0
aI0
aI2
aI0
aI1
aa(lp80
I1
aI0
aI0
aI0
aI1
aI1
aI0
aI1
aI0
aI0
aI0
aI0
aI1
aa(lp81
I1
aI0
aI1
aI0
aI1
aI1
aI0
aI1
aI1
aI0
aI0
aI0
aI1
aa(lp82
I1
aI0
aI0
aI0
aI1
aI1
aI0
aI1
aI0
aI0
aI0
aI0
aI1
aa(lp83
I1
aI0
aI1
aI0
aI1
aI1
aI0
aI3
aI0
aI0
aI0
aI0
aI1
aa(lp84
I1
aI0
aI0
aI1
aI5
aI1
aI0
aI1
aI0
aI0
aI0
aI0
aI1
aa(lp85
I1
aI0
aI1
aI0
aI1
aI1
aI0
aI1
aI0
aI0
aI0
aI0
aI1
aa(lp86
I1
aI0
aI1
aI0
aI1
aI1
aI0
aI1
aI0
aI0
aI2
aI0
aI1
aa(lp87
I1
aI0
aI1
aI0
aI1
aI1
aI0
aI1
aI0
aI0
aI0
aI0
aI1
aa(lp88
I1
aI0
aI1
aI0
aI1
aI1
aI0
aI1
aI1
aI0
aI2
aI0
aI1
aa(lp89
I1
aI0
aI1
aI0
aI4
aI0
aI1
aI3
aI0
aI0
aI0
aI0
aI1
aa(lp90
I1
aI0
aI1
aI1
aI5
aI1
aI1
aI3
aI0
aI0
aI0
aI0
aI1
aa(lp91
I1
aI0
aI0
aI0
aI1
aI1
aI0
aI3
aI1
aI0
aI2
aI0
aI1
aa(lp92
I1
aI0
aI1
aI0
aI1
aI0
aI0
aI1
aI1
aI0
aI0
aI0
aI1
aa(lp93
I1
aI2
aI4
aI1
aI5
aI1
aI0
aI1
aI0
aI0
aI0
aI0
aI1
aa(lp94
I1
aI0
aI0
aI3
aI5
aI0
aI0
aI3
aI0
aI0
aI2
aI0
aI1
aa(lp95
I1
aI0
aI1
aI0
aI1
aI1
aI0
aI2
aI0
aI0
aI0
aI0
aI1
aa(lp96
I1
aI0
aI2
aI0
aI2
aI1
aI1
aI2
aI1
aI0
aI2
aI0
aI1
aa(lp97
I1
aI0
aI0
aI0
aI1
aI1
aI0
aI3
aI0
aI0
aI2
aI0
aI1
aa(lp98
I1
aI0
aI0
aI0
aI4
aI1
aI0
aI3
aI0
aI0
aI0
aI0
aI1
aa(lp99
I1
aI0
aI1
aI0
aI4
aI1
aI0
aI3
aI0
aI0
aI0
aI0
aI1
aa(lp100
I1
aI0
aI0
aI0
aI4
aI1
aI0
aI1
aI0
aI0
aI0
aI0
aI1
aa(lp101
I1
aI0
aI0
aI0
aI1
aI1
aI0
aI1
aI0
aI0
aI2
aI0
aI1
aa(lp102
I1
aI0
aI1
aI0
aI1
aI1
aI0
aI1
aI0
aI0
aI0
aI0
aI1
aa(lp103
I1
aI0
aI0
aI0
aI1
aI1
aI0
aI3
aI0
aI0
aI2
aI0
aI1
aa(lp104
I1
aI0
aI0
aI0
aI1
aI0
aI0
aI1
aI0
aI0
aI0
aI0
aI1
aa(lp105
I1
aI1
aI4
aI0
aI1
aI1
aI0
aI1
aI0
aI0
aI0
aI0
aI1
aa(lp106
I1
aI0
aI0
aI0
aI1
aI1
aI0
aI3
aI0
aI0
aI2
aI0
aI1
aa(lp107
I1
aI3
aI4
aI0
aI1
aI0
aI0
aI1
aI0
aI0
aI0
aI0
aI1
aa(lp108
I1
aI0
aI1
aI0
aI1
aI1
aI0
aI3
aI1
aI0
aI2
aI2
aI1
aa(lp109
I1
aI0
aI0
aI1
aI5
aI0
aI1
aI3
aI0
aI0
aI2
aI0
aI1
aa(lp110
I1
aI0
aI2
aI0
aI1
aI1
aI0
aI3
aI1
aI0
aI0
aI0
aI1
aa(lp111
I1
aI0
aI1
aI0
aI1
aI1
aI0
aI1
aI0
aI0
aI0
aI0
aI1
aa(lp112
I1
aI0
aI0
aI0
aI4
aI1
aI0
aI3
aI0
aI0
aI0
aI2
aI1
aa(lp113
I1
aI0
aI1
aI0
aI4
aI1
aI1
aI3
aI0
aI0
aI0
aI2
aI1
aa(lp114
I1
aI0
aI0
aI0
aI1
aI1
aI1
aI3
aI0
aI0
aI0
aI0
aI1
aa(lp115
I1
aI0
aI1
aI0
aI1
aI1
aI0
aI1
aI1
aI0
aI2
aI0
aI1
aa(lp116
I1
aI0
aI0
aI0
aI1
aI1
aI0
aI2
aI0
aI0
aI0
aI0
aI1
aa(lp117
I1
aI0
aI0
aI0
aI1
aI1
aI3
aI3
aI1
aI0
aI0
aI0
aI1
aa(lp118
I1
aI1
aI4
aI0
aI4
aI1
aI0
aI3
aI1
aI0
aI0
aI2
aI1
aa(lp119
I1
aI0
aI1
aI0
aI1
aI1
aI0
aI2
aI1
aI0
aI2
aI0
aI1
aa(lp120
I1
aI0
aI0
aI0
aI1
aI0
aI1
aI3
aI0
aI0
aI1
aI0
aI1
aa(lp121
I1
aI0
aI1
aI0
aI1
aI1
aI0
aI3
aI0
aI0
aI0
aI2
aI1
aa(lp122
I1
aI5
aI1
aI0
aI5
aI1
aI1
aI3
aI0
aI0
aI0
aI0
aI1
aa(lp123
I1
aI0
aI0
aI0
aI1
aI1
aI0
aI2
aI0
aI0
aI2
aI0
aI1
aa(lp124
I1
aI0
aI1
aI0
aI4
aI0
aI0
aI1
aI0
aI0
aI0
aI1
aI1
aa(lp125
I1
aI0
aI2
aI0
aI1
aI0
aI0
aI2
aI1
aI0
aI2
aI0
aI1
aa(lp126
I1
aI0
aI0
aI0
aI1
aI1
aI0
aI3
aI0
aI0
aI0
aI0
aI1
aa(lp127
I1
aI0
aI0
aI0
aI4
aI1
aI0
aI1
aI1
aI0
aI0
aI0
aI1
aa(lp128
I1
aI0
aI0
aI0
aI1
aI0
aI1
aI3
aI0
aI0
aI0
aI0
aI1
aa(lp129
I1
aI2
aI4
aI0
aI1
aI1
aI2
aI3
aI1
aI0
aI0
aI0
aI1
aa(lp130
I1
aI1
aI4
aI0
aI4
aI1
aI0
aI2
aI1
aI0
aI0
aI0
aI1
aa(lp131
I1
aI0
aI1
aI1
aI5
aI1
aI0
aI3
aI0
aI0
aI0
aI0
aI1
aa(lp132
I1
aI0
aI1
aI0
aI1
aI1
aI0
aI3
aI1
aI0
aI2
aI0
aI1
aa(lp133
I1
aI2
aI4
aI0
aI1
aI1
aI0
aI1
aI0
aI0
aI0
aI2
aI1
aa(lp134
I1
aI0
aI0
aI0
aI1
aI1
aI0
aI3
aI1
aI0
aI1
aI0
aI1
aa(lp135
I1
aI0
aI0
aI0
aI4
aI0
aI1
aI3
aI0
aI0
aI0
aI0
aI1
aa(lp136
I1
aI0
aI1
aI0
aI1
aI1
aI0
aI1
aI0
aI0
aI0
aI0
aI1
aa(lp137
I1
aI3
aI4
aI0
aI1
aI1
aI3
aI3
aI1
aI0
aI0
aI0
aI1
aa(lp138
I1
aI0
aI0
aI0
aI1
aI1
aI0
aI3
aI0
aI0
aI0
aI0
aI1
aa(lp139
I1
aI0
aI1
aI0
aI1
aI1
aI0
aI1
aI1
aI0
aI2
aI2
aI1
aa(lp140
I1
aI0
aI1
aI0
aI4
aI1
aI0
aI1
aI0
aI0
aI2
aI2
aI1
aa(lp141
I1
aI0
aI2
aI0
aI1
aI1
aI0
aI1
aI1
aI0
aI0
aI0
aI1
aa(lp142
I1
aI0
aI1
aI0
aI1
aI1
aI0
aI2
aI1
aI0
aI2
aI2
aI1
aa(lp143
I1
aI4
aI4
aI0
aI4
aI1
aI4
aI3
aI0
aI0
aI0
aI0
aI1
aa(lp144
I1
aI0
aI0
aI0
aI1
aI1
aI0
aI1
aI0
aI0
aI0
aI0
aI1
aa(lp145
I1
aI0
aI1
aI0
aI1
aI1
aI0
aI1
aI0
aI0
aI0
aI0
aI1
aa(lp146
I1
aI0
aI0
aI0
aI4
aI1
aI1
aI3
aI1
aI0
aI0
aI0
aI1
aa(lp147
I1
aI0
aI1
aI0
aI4
aI1
aI0
aI2
aI0
aI0
aI0
aI0
aI1
aa(lp148
I1
aI0
aI2
aI0
aI4
aI1
aI0
aI3
aI0
aI0
aI0
aI0
aI1
aa(lp149
I1
aI0
aI1
aI0
aI1
aI1
aI0
aI2
aI1
aI0
aI0
aI0
aI1
aa(lp150
I1
aI0
aI0
aI0
aI1
aI1
aI0
aI3
aI1
aI0
aI0
aI0
aI1
aa(lp151
I1
aI0
aI1
aI0
aI1
aI0
aI0
aI3
aI0
aI0
aI0
aI0
aI1
aa(lp152
I1
aI0
aI0
aI0
aI1
aI1
aI1
aI3
aI0
aI0
aI0
aI2
aI1
aa(lp153
I1
aI0
aI0
aI0
aI1
aI1
aI0
aI3
aI0
aI0
aI2
aI2
aI1
aa(lp154
I1
aI0
aI1
aI0
aI1
aI1
aI0
aI1
aI0
aI0
aI0
aI0
aI1
aa(lp155
I1
aI0
aI1
aI0
aI4
aI1
aI0
aI3
aI0
aI0
aI0
aI0
aI1
aa(lp156
I1
aI0
aI4
aI0
aI1
aI1
aI0
aI3
aI0
aI0
aI0
aI0
aI1
aa(lp157
I1
aI0
aI0
aI1
aI5
aI1
aI0
aI2
aI1
aI0
aI0
aI0
aI1
aa(lp158
I1
aI0
aI0
aI0
aI3
aI1
aI0
aI3
aI0
aI0
aI0
aI0
aI1
aa(lp159
I1
aI1
aI4
aI0
aI1
aI1
aI0
aI2
aI0
aI0
aI0
aI0
aI1
aa(lp160
I1
aI0
aI1
aI0
aI4
aI0
aI0
aI3
aI0
aI0
aI0
aI0
aI1
aa(lp161
I1
aI0
aI0
aI0
aI1
aI1
aI0
aI1
aI0
aI0
aI2
aI0
aI1
aa(lp162
I1
aI0
aI2
aI0
aI1
aI1
aI0
aI2
aI1
aI0
aI2
aI0
aI1
aa(lp163
I1
aI0
aI1
aI0
aI1
aI1
aI3
aI3
aI1
aI0
aI0
aI0
aI1
aa(lp164
I1
aI3
aI4
aI0
aI4
aI1
aI3
aI3
aI1
aI0
aI0
aI0
aI1
aa(lp165
I1
aI0
aI0
aI0
aI4
aI1
aI0
aI3
aI0
aI0
aI0
aI0
aI1
aa(lp166
I1
aI0
aI0
aI0
aI4
aI1
aI0
aI1
aI0
aI0
aI2
aI0
aI1
aa(lp167
I1
aI0
aI0
aI0
aI4
aI0
aI0
aI1
aI0
aI0
aI2
aI0
aI1
aa(lp168
I1
aI0
aI1
aI1
aI5
aI1
aI0
aI2
aI0
aI0
aI0
aI0
aI1
aa(lp169
I1
aI1
aI4
aI3
aI5
aI0
aI0
aI3
aI0
aI0
aI2
aI0
aI1
aa(lp170
I1
aI0
aI1
aI0
aI2
aI1
aI0
aI1
aI0
aI0
aI2
aI0
aI1
aa(lp171
I1
aI0
aI0
aI0
aI1
aI1
aI0
aI2
aI1
aI0
aI0
aI0
aI1
aa(lp172
I1
aI0
aI0
aI0
aI1
aI1
aI0
aI3
aI0
aI0
aI0
aI1
aI1
aa(lp173
I1
aI0
aI0
aI1
aI5
aI1
aI0
aI1
aI0
aI0
aI0
aI0
aI1
aa(lp174
I1
aI0
aI2
aI0
aI1
aI1
aI0
aI3
aI0
aI0
aI1
aI0
aI1
aa(lp175
I1
aI0
aI1
aI0
aI4
aI0
aI0
aI1
aI0
aI0
aI0
aI0
aI1
aa(lp176
I1
aI0
aI0
aI0
aI4
aI1
aI0
aI3
aI0
aI0
aI0
aI0
aI1
aa(lp177
I1
aI0
aI0
aI0
aI1
aI1
aI1
aI3
aI0
aI0
aI2
aI0
aI1
aa(lp178
I1
aI3
aI4
aI1
aI5
aI1
aI1
aI3
aI0
aI0
aI0
aI0
aI1
aa(lp179
I1
aI1
aI4
aI0
aI1
aI1
aI1
aI3
aI0
aI0
aI0
aI0
aI2
aa(lp180
I1
aI0
aI1
aI0
aI1
aI1
aI0
aI1
aI1
aI0
aI0
aI0
aI2
aa(lp181
I1
aI0
aI1
aI0
aI4
aI1
aI0
aI1
aI0
aI0
aI0
aI0
aI2
aa(lp182
I1
aI0
aI1
aI0
aI4
aI1
aI0
aI1
aI0
aI0
aI0
aI0
aI2
aa(lp183
I1
aI0
aI1
aI0
aI3
aI1
aI0
aI3
aI0
aI0
aI0
aI0
aI2
aa(lp184
I1
aI2
aI4
aI0
aI2
aI1
aI1
aI3
aI0
aI0
aI0
aI0
aI2
aa(lp185
I1
aI0
aI1
aI0
aI1
aI1
aI0
aI2
aI1
aI0
aI0
aI0
aI2
aa(lp186
I1
aI1
aI3
aI0
aI4
aI1
aI1
aI3
aI0
aI0
aI0
aI0
aI2
aa(lp187
I1
aI1
aI4
aI0
aI1
aI1
aI1
aI3
aI0
aI0
aI0
aI0
aI2
aa(lp188
I1
aI0
aI1
aI0
aI5
aI1
aI0
aI1
aI0
aI0
aI0
aI0
aI2
aa(lp189
I1
aI0
aI1
aI0
aI1
aI1
aI1
aI3
aI0
aI0
aI0
aI0
aI2
aa(lp190
I1
aI0
aI1
aI0
aI1
aI1
aI1
aI3
aI0
aI0
aI0
aI0
aI2
aa(lp191
I1
aI0
aI1
aI0
aI1
aI1
aI0
aI1
aI0
aI0
aI0
aI0
aI2
aa(lp192
I1
aI0
aI2
aI0
aI1
aI1
aI0
aI1
aI1
aI0
aI0
aI0
aI2
aa(lp193
I1
aI0
aI1
aI0
aI4
aI1
aI0
aI2
aI1
aI0
aI0
aI0
aI2
aa(lp194
I1
aI0
aI1
aI0
aI1
aI1
aI0
aI1
aI0
aI0
aI0
aI0
aI2
aa(lp195
I1
aI0
aI1
aI0
aI1
aI1
aI0
aI3
aI0
aI0
aI0
aI2
aI2
aa(lp196
I1
aI0
aI1
aI0
aI4
aI1
aI0
aI1
aI1
aI0
aI0
aI0
aI2
aa(lp197
I1
aI2
aI4
aI0
aI1
aI1
aI0
aI3
aI0
aI0
aI0
aI0
aI2
aa(lp198
I1
aI0
aI1
aI0
aI1
aI1
aI1
aI3
aI0
aI0
aI0
aI0
aI2
aa(lp199
I1
aI0
aI0
aI0
aI1
aI1
aI0
aI3
aI1
aI0
aI0
aI0
aI2
aa(lp200
I1
aI0
aI1
aI0
aI1
aI1
aI0
aI1
aI0
aI0
aI2
aI0
aI2
aa(lp201
I1
aI0
aI1
aI0
aI1
aI1
aI1
aI3
aI0
aI0
aI0
aI0
aI2
aa(lp202
I1
aI0
aI0
aI0
aI1
aI0
aI0
aI3
aI1
aI0
aI2
aI2
aI2
aa(lp203
I1
aI0
aI2
aI0
aI2
aI1
aI0
aI3
aI0
aI0
aI2
aI0
aI2
aa(lp204
I1
aI0
aI1
aI0
aI1
aI1
aI0
aI2
aI1
aI0
aI0
aI0
aI2
aa(lp205
I1
aI0
aI2
aI0
aI1
aI0
aI0
aI2
aI1
aI0
aI0
aI0
aI2
aa(lp206
I1
aI0
aI1
aI0
aI1
aI1
aI0
aI1
aI1
aI0
aI0
aI0
aI2
aa(lp207
I1
aI0
aI1
aI0
aI1
aI1
aI0
aI2
aI1
aI0
aI0
aI0
aI2
aa(lp208
I1
aI0
aI0
aI0
aI3
aI1
aI0
aI1
aI1
aI0
aI0
aI0
aI2
aa(lp209
I1
aI0
aI1
aI0
aI1
aI1
aI0
aI3
aI0
aI0
aI0
aI0
aI2
aa(lp210
I1
aI0
aI0
aI0
aI1
aI1
aI0
aI1
aI1
aI0
aI2
aI0
aI2
aa(lp211
I1
aI0
aI0
aI0
aI1
aI1
aI0
aI1
aI0
aI0
aI0
aI0
aI2
aa(lp212
I1
aI0
aI1
aI0
aI1
aI1
aI1
aI3
aI1
aI0
aI0
aI0
aI2
aa(lp213
I1
aI0
aI4
aI0
aI1
aI1
aI0
aI1
aI0
aI0
aI0
aI0
aI2
aa(lp214
I1
aI0
aI1
aI0
aI1
aI1
aI0
aI3
aI0
aI0
aI2
aI0
aI2
aa(lp215
I1
aI0
aI1
aI0
aI4
aI1
aI1
aI3
aI0
aI0
aI0
aI0
aI2
aa(lp216
I1
aI0
aI0
aI0
aI4
aI1
aI0
aI1
aI0
aI0
aI0
aI0
aI2
aa(lp217
I1
aI0
aI0
aI0
aI5
aI1
aI0
aI2
aI1
aI0
aI0
aI0
aI2
aa(lp218
I1
aI0
aI1
aI0
aI1
aI1
aI0
aI3
aI1
aI0
aI0
aI0
aI2
aa(lp219
I1
aI0
aI1
aI0
aI1
aI0
aI0
aI1
aI0
aI0
aI0
aI2
aI2
aa(lp220
I1
aI0
aI2
aI0
aI1
aI1
aI0
aI2
aI1
aI0
aI0
aI0
aI2
aa(lp221
I1
aI0
aI1
aI0
aI1
aI1
aI0
aI1
aI1
aI0
aI0
aI0
aI2
aa(lp222
I1
aI0
aI0
aI0
aI4
aI1
aI0
aI1
aI0
aI0
aI0
aI2
aI2
aa(lp223
I1
aI0
aI1
aI0
aI4
aI1
aI0
aI3
aI0
aI0
aI0
aI0
aI2
aa(lp224
I1
aI0
aI0
aI0
aI4
aI0
aI0
aI1
aI0
aI0
aI0
aI0
aI2
aa(lp225
I1
aI0
aI0
aI0
aI1
aI1
aI0
aI1
aI1
aI0
aI0
aI0
aI2
aa(lp226
I1
aI0
aI1
aI0
aI1
aI1
aI2
aI3
aI0
aI0
aI0
aI0
aI2
aa(lp227
I1
aI0
aI1
aI0
aI1
aI1
aI0
aI3
aI0
aI0
aI0
aI0
aI2
aa(lp228
I1
aI0
aI0
aI0
aI1
aI1
aI0
aI1
aI0
aI0
aI0
aI0
aI2
aa(lp229
I1
aI0
aI0
aI0
aI1
aI1
aI0
aI3
aI0
aI0
aI0
aI0
aI2
aa(lp230
I1
aI0
aI1
aI0
aI1
aI1
aI0
aI2
aI1
aI0
aI0
aI0
aI2
aa(lp231
I1
aI0
aI1
aI0
aI1
aI1
aI1
aI3
aI0
aI0
aI1
aI0
aI2
aa(lp232
I1
aI0
aI1
aI0
aI1
aI1
aI0
aI3
aI1
aI0
aI0
aI0
aI2
aa(lp233
I1
aI0
aI1
aI0
aI1
aI1
aI0
aI2
aI1
aI0
aI0
aI0
aI2
aa(lp234
I1
aI0
aI0
aI0
aI1
aI1
aI0
aI1
aI0
aI0
aI0
aI0
aI2
aa(lp235
I1
aI0
aI0
aI0
aI1
aI1
aI0
aI1
aI0
aI0
aI2
aI0
aI2
aa(lp236
I1
aI0
aI4
aI0
aI1
aI1
aI0
aI1
aI0
aI0
aI0
aI0
aI2
aa(lp237
I1
aI2
aI4
aI0
aI0
aI0
aI2
aI1
aI0
aI0
aI2
aI0
aI2
aa(lp238
I1
aI0
aI1
aI0
aI1
aI1
aI0
aI3
aI0
aI0
aI2
aI2
aI2
aa(lp239
I1
aI0
aI1
aI0
aI1
aI1
aI1
aI3
aI0
aI0
aI0
aI0
aI2
aa(lp240
I1
aI0
aI0
aI0
aI1
aI1
aI0
aI1
aI1
aI0
aI2
aI2
aI2
aa(lp241
I1
aI0
aI0
aI0
aI5
aI1
aI0
aI1
aI0
aI0
aI0
aI0
aI2
aa(lp242
I1
aI0
aI2
aI1
aI5
aI1
aI0
aI2
aI1
aI0
aI0
aI0
aI2
aa(lp243
I1
aI0
aI1
aI0
aI1
aI1
aI0
aI1
aI1
aI0
aI2
aI0
aI2
aa(lp244
I1
aI0
aI1
aI0
aI1
aI1
aI0
aI1
aI1
aI0
aI0
aI0
aI2
aa(lp245
I1
aI0
aI1
aI0
aI1
aI1
aI0
aI1
aI1
aI0
aI0
aI0
aI2
aa(lp246
I1
aI0
aI1
aI0
aI1
aI1
aI0
aI3
aI0
aI0
aI0
aI0
aI2
aa(lp247
I1
aI0
aI1
aI0
aI1
aI1
aI0
aI3
aI0
aI0
aI0
aI0
aI2
aa(lp248
I1
aI0
aI1
aI1
aI5
aI1
aI0
aI1
aI0
aI0
aI0
aI0
aI2
aa(lp249
I1
aI0
aI1
aI0
aI4
aI1
aI1
aI3
aI0
aI0
aI0
aI0
aI2
aa(lp250
I1
aI0
aI0
aI0
aI1
aI1
aI0
aI1
aI0
aI0
aI0
aI0
aI2
aa(lp251
I1
aI0
aI1
aI0
aI1
aI1
aI0
aI1
aI1
aI0
aI0
aI0
aI2
aa(lp252
I1
aI0
aI0
aI0
aI5
aI0
aI1
aI3
aI0
aI0
aI0
aI2
aI2
aa(lp253
I1
aI0
aI1
aI0
aI4
aI1
aI1
aI3
aI0
aI0
aI0
aI0
aI2
aa(lp254
I1
aI0
aI0
aI0
aI1
aI1
aI0
aI3
aI0
aI0
aI0
aI2
aI2
aa(lp255
I1
aI0
aI1
aI0
aI1
aI1
aI0
aI1
aI0
aI0
aI0
aI0
aI2
aa(lp256
I1
aI0
aI1
aI1
aI5
aI1
aI1
aI3
aI0
aI0
aI0
aI2
aI2
aa(lp257
I1
aI0
aI1
aI0
aI1
aI1
aI0
aI1
aI0
aI0
aI0
aI2
aI2
aa(lp258
I1
aI0
aI1
aI0
aI1
aI1
aI0
aI3
aI0
aI0
aI2
aI0
aI2
aa(lp259
I1
aI0
aI1
aI0
aI1
aI1
aI0
aI1
aI1
aI0
aI0
aI0
aI2
aa(lp260
I1
aI0
aI2
aI0
aI1
aI1
aI0
aI2
aI1
aI0
aI0
aI0
aI2
aa(lp261
I1
aI0
aI1
aI1
aI5
aI0
aI1
aI3
aI0
aI0
aI0
aI0
aI2
aa(lp262
I1
aI0
aI1
aI0
aI1
aI1
aI0
aI2
aI1
aI0
aI0
aI0
aI2
aa(lp263
I1
aI0
aI1
aI0
aI1
aI1
aI0
aI1
aI0
aI0
aI0
aI2
aI2
aa(lp264
I1
aI0
aI1
aI0
aI0
aI0
aI0
aI3
aI0
aI0
aI0
aI0
aI2
aa(lp265
I1
aI0
aI0
aI0
aI1
aI1
aI0
aI1
aI0
aI0
aI0
aI0
aI2
aa(lp266
I1
aI0
aI0
aI0
aI4
aI1
aI0
aI1
aI0
aI0
aI0
aI0
aI2
aa(lp267
I1
aI0
aI1
aI0
aI1
aI1
aI0
aI1
aI0
aI0
aI0
aI0
aI2
aa(lp268
I1
aI0
aI1
aI0
aI1
aI1
aI0
aI3
aI1
aI0
aI0
aI0
aI2
aa(lp269
I1
aI2
aI4
aI1
aI5
aI1
aI1
aI3
aI0
aI0
aI0
aI2
aI2
aa(lp270
I1
aI1
aI4
aI0
aI1
aI1
aI0
aI1
aI0
aI0
aI2
aI0
aI2
aa(lp271
I1
aI0
aI1
aI0
aI2
aI1
aI2
aI3
aI1
aI0
aI2
aI0
aI2
aa(lp272
I1
aI1
aI4
aI0
aI1
aI1
aI3
aI3
aI0
aI0
aI0
aI0
aI2
aa(lp273
I1
aI0
aI1
aI0
aI1
aI1
aI0
aI2
aI1
aI0
aI0
aI0
aI2
aa(lp274
I1
aI0
aI0
aI0
aI1
aI1
aI1
aI3
aI0
aI0
aI2
aI0
aI2
aa(lp275
I1
aI0
aI4
aI0
aI1
aI1
aI0
aI3
aI0
aI0
aI0
aI0
aI2
aa(lp276
I1
aI0
aI1
aI0
aI1
aI1
aI0
aI1
aI1
aI0
aI0
aI0
aI2
aa(lp277
I1
aI0
aI1
aI0
aI1
aI1
aI1
aI3
aI0
aI0
aI0
aI0
aI2
aa(lp278
I1
aI0
aI1
aI0
aI0
aI1
aI0
aI1
aI0
aI0
aI2
aI0
aI2
aa(lp279
I1
aI0
aI1
aI0
aI4
aI1
aI0
aI1
aI1
aI0
aI0
aI0
aI2
aa(lp280
I1
aI2
aI4
aI1
aI5
aI1
aI1
aI3
aI0
aI0
aI0
aI0
aI2
aa(lp281
I1
aI3
aI1
aI0
aI1
aI1
aI3
aI3
aI1
aI0
aI2
aI0
aI2
aa(lp282
I1
aI0
aI1
aI0
aI3
aI0
aI0
aI1
aI1
aI0
aI2
aI0
aI2
aa(lp283
I1
aI0
aI1
aI0
aI1
aI1
aI0
aI1
aI0
aI0
aI0
aI0
aI2
aa(lp284
I1
aI0
aI1
aI0
aI1
aI1
aI1
aI3
aI0
aI0
aI0
aI0
aI2
aa(lp285
I1
aI0
aI0
aI0
aI3
aI1
aI0
aI1
aI0
aI0
aI0
aI0
aI2
aa(lp286
I1
aI0
aI1
aI0
aI1
aI1
aI0
aI3
aI0
aI0
aI2
aI2
aI2
aa(lp287
I1
aI0
aI1
aI0
aI4
aI0
aI0
aI3
aI0
aI0
aI0
aI0
aI2
aa(lp288
I1
aI0
aI1
aI1
aI5
aI1
aI0
aI3
aI0
aI0
aI0
aI0
aI2
aa(lp289
I1
aI0
aI0
aI0
aI2
aI1
aI0
aI1
aI1
aI0
aI0
aI0
aI2
aa(lp290
I1
aI1
aI4
aI0
aI1
aI1
aI0
aI1
aI1
aI0
aI0
aI0
aI2
aa(lp291
I1
aI1
aI4
aI0
aI1
aI1
aI0
aI3
aI1
aI0
aI0
aI0
aI2
aa(lp292
I1
aI0
aI0
aI0
aI4
aI1
aI0
aI3
aI1
aI0
aI0
aI0
aI2
aa(lp293
I1
aI0
aI1
aI0
aI1
aI1
aI0
aI2
aI1
aI0
aI0
aI0
aI2
aa(lp294
I1
aI0
aI2
aI0
aI1
aI1
aI0
aI1
aI0
aI0
aI0
aI0
aI2
aa(lp295
I1
aI0
aI1
aI0
aI1
aI1
aI0
aI2
aI1
aI0
aI0
aI0
aI2
aa(lp296
I1
aI1
aI4
aI0
aI1
aI1
aI1
aI3
aI0
aI0
aI0
aI0
aI2
aa(lp297
I1
aI0
aI1
aI0
aI1
aI1
aI0
aI1
aI0
aI0
aI0
aI0
aI2
aa(lp298
I1
aI1
aI4
aI0
aI0
aI1
aI0
aI3
aI0
aI0
aI0
aI0
aI2
aa(lp299
I1
aI0
aI1
aI1
aI5
aI1
aI1
aI3
aI0
aI0
aI0
aI0
aI2
aa(lp300
I1
aI0
aI0
aI0
aI1
aI1
aI0
aI2
aI1
aI0
aI0
aI0
aI2
aa(lp301
I1
aI0
aI1
aI0
aI1
aI0
aI0
aI3
aI0
aI0
aI0
aI0
aI2
aa(lp302
I1
aI0
aI0
aI0
aI1
aI1
aI0
aI1
aI1
aI0
aI0
aI0
aI2
aa(lp303
I1
aI0
aI1
aI0
aI1
aI1
aI0
aI1
aI1
aI0
aI0
aI0
aI2
aa(lp304
I1
aI0
aI1
aI0
aI1
aI1
aI0
aI1
aI1
aI0
aI0
aI0
aI2
aa(lp305
I1
aI0
aI1
aI0
aI1
aI1
aI0
aI1
aI1
aI0
aI0
aI2
aI2
aa(lp306
I1
aI0
aI0
aI0
aI1
aI1
aI1
aI3
aI1
aI0
aI0
aI0
aI2
aa(lp307
I1
aI0
aI1
aI0
aI1
aI1
aI0
aI1
aI1
aI0
aI0
aI0
aI2
aa(lp308
I1
aI0
aI1
aI0
aI1
aI0
aI0
aI1
aI1
aI0
aI2
aI0
aI2
aa(lp309
I1
aI0
aI0
aI0
aI1
aI0
aI0
aI2
aI1
aI0
aI2
aI0
aI2
aa(lp310
I1
aI0
aI1
aI0
aI1
aI1
aI0
aI2
aI1
aI0
aI0
aI0
aI2
aa(lp311
I1
aI3
aI4
aI1
aI5
aI1
aI0
aI1
aI0
aI0
aI0
aI0
aI2
aa(lp312
I1
aI0
aI2
aI0
aI1
aI1
aI0
aI2
aI1
aI0
aI0
aI0
aI2
aa(lp313
I1
aI0
aI1
aI0
aI1
aI1
aI0
aI1
aI0
aI0
aI0
aI0
aI2
aa(lp314
I1
aI0
aI0
aI0
aI3
aI1
aI0
aI3
aI0
aI0
aI0
aI0
aI2
aa(lp315
I1
aI0
aI1
aI0
aI1
aI1
aI0
aI3
aI0
aI0
aI0
aI0
aI2
aa(lp316
I1
aI0
aI1
aI0
aI1
aI1
aI0
aI1
aI0
aI0
aI0
aI0
aI2
aa(lp317
I1
aI0
aI1
aI0
aI2
aI1
aI0
aI1
aI0
aI0
aI2
aI0
aI2
aa(lp318
I1
aI0
aI1
aI0
aI1
aI1
aI0
aI3
aI0
aI0
aI0
aI0
aI2
aa(lp319
I1
aI0
aI1
aI0
aI1
aI1
aI0
aI3
aI0
aI0
aI0
aI0
aI2
aa(lp320
I1
aI0
aI1
aI0
aI1
aI1
aI0
aI3
aI0
aI0
aI0
aI0
aI2
aa(lp321
I1
aI0
aI1
aI0
aI1
aI1
aI0
aI3
aI1
aI0
aI0
aI0
aI2
aa(lp322
I1
aI0
aI1
aI0
aI1
aI1
aI1
aI3
aI0
aI0
aI2
aI0
aI2
aa(lp323
I1
aI0
aI1
aI0
aI1
aI1
aI0
aI1
aI0
aI0
aI0
aI0
aI2
aa(lp324
I1
aI0
aI1
aI0
aI1
aI1
aI0
aI1
aI0
aI0
aI0
aI0
aI2
aa(lp325
I1
aI0
aI1
aI1
aI5
aI1
aI0
aI1
aI0
aI0
aI0
aI0
aI2
aa(lp326
I1
aI0
aI1
aI0
aI1
aI1
aI0
aI3
aI0
aI0
aI0
aI0
aI2
aa(lp327
I1
aI4
aI4
aI3
aI5
aI0
aI0
aI3
aI0
aI0
aI2
aI0
aI2
aa(lp328
I1
aI0
aI1
aI0
aI1
aI1
aI1
aI3
aI0
aI0
aI0
aI0
aI2
aa(lp329
I1
aI0
aI1
aI0
aI1
aI1
aI0
aI1
aI1
aI0
aI0
aI0
aI2
aa(lp330
I1
aI0
aI0
aI0
aI4
aI1
aI0
aI1
aI0
aI0
aI0
aI0
aI2
aa(lp331
I1
aI0
aI1
aI0
aI1
aI1
aI0
aI1
aI0
aI0
aI0
aI0
aI2
aa(lp332
I1
aI0
aI0
aI1
aI5
aI1
aI0
aI3
aI0
aI0
aI0
aI0
aI2
aa(lp333
I0
aI4
aI0
aI0
aI1
aI0
aI1
aI0
aI0
aI2
aI0
aI0
aI2
aa(lp334
I1
aI0
aI1
aI1
aI5
aI1
aI0
aI3
aI0
aI0
aI0
aI0
aI2
aa(lp335
I1
aI0
aI1
aI0
aI1
aI1
aI0
aI1
aI1
aI0
aI0
aI0
aI2
aa(lp336
I1
aI0
aI1
aI0
aI1
aI1
aI1
aI3
aI0
aI0
aI0
aI0
aI2
aa(lp337
I1
aI0
aI1
aI0
aI1
aI1
aI0
aI1
aI1
aI0
aI0
aI0
aI2
aa(lp338
I1
aI0
aI0
aI0
aI1
aI1
aI0
aI3
aI0
aI0
aI0
aI0
aI2
aa(lp339
I1
aI0
aI1
aI0
aI1
aI1
aI0
aI1
aI1
aI0
aI0
aI0
aI2
aa(lp340
I1
aI0
aI1
aI0
aI1
aI1
aI1
aI3
aI0
aI0
aI0
aI0
aI2
aa(lp341
I1
aI0
aI1
aI0
aI1
aI1
aI1
aI3
aI0
aI0
aI0
aI0
aI2
aa(lp342
I1
aI3
aI4
aI0
aI1
aI1
aI3
aI3
aI1
aI0
aI0
aI0
aI2
aa(lp343
I1
aI0
aI1
aI0
aI1
aI1
aI0
aI1
aI0
aI0
aI2
aI0
aI2
aa(lp344
I1
aI0
aI1
aI0
aI1
aI1
aI3
aI3
aI1
aI0
aI0
aI0
aI2
aa(lp345
I1
aI0
aI1
aI0
aI1
aI1
aI0
aI1
aI0
aI0
aI0
aI2
aI2
aa(lp346
I1
aI0
aI1
aI0
aI1
aI1
aI0
aI1
aI1
aI0
aI2
aI0
aI2
aa(lp347
I1
aI0
aI1
aI0
aI1
aI1
aI0
aI1
aI1
aI0
aI0
aI0
aI2
aa(lp348
I1
aI0
aI1
aI0
aI1
aI1
aI0
aI1
aI0
aI0
aI0
aI0
aI2
aa(lp349
I1
aI0
aI1
aI0
aI1
aI1
aI0
aI1
aI0
aI0
aI0
aI0
aI2
aa(lp350
I1
aI0
aI1
aI0
aI1
aI1
aI0
aI1
aI1
aI0
aI0
aI0
aI2
aa(lp351
I1
aI3
aI4
aI0
aI1
aI1
aI3
aI3
aI1
aI0
aI0
aI0
aI2
aa(lp352
I1
aI1
aI4
aI0
aI1
aI1
aI3
aI3
aI1
aI0
aI0
aI0
aI2
aa(lp353
I1
aI0
aI1
aI0
aI1
aI1
aI0
aI1
aI0
aI0
aI0
aI0
aI2
aa(lp354
I1
aI0
aI1
aI0
aI1
aI1
aI0
aI1
aI1
aI0
aI2
aI0
aI2
aa(lp355
I1
aI0
aI0
aI0
aI1
aI1
aI0
aI1
aI1
aI0
aI0
aI0
aI2
aa(lp356
I1
aI0
aI1
aI0
aI1
aI1
aI0
aI1
aI0
aI0
aI0
aI0
aI2
aa(lp357
I1
aI0
aI1
aI0
aI1
aI1
aI0
aI1
aI1
aI0
aI0
aI0
aI2
aa(lp358
I1
aI0
aI0
aI0
aI1
aI1
aI0
aI1
aI1
aI0
aI0
aI2
aI2
aa(lp359
I1
aI0
aI1
aI0
aI1
aI1
aI0
aI1
aI1
aI0
aI0
aI0
aI2
aa(lp360
I1
aI0
aI1
aI0
aI1
aI1
aI0
aI1
aI1
aI0
aI0
aI0
aI2
aa(lp361
I1
aI1
aI4
aI1
aI5
aI1
aI1
aI3
aI0
aI0
aI0
aI0
aI2
aa(lp362
I1
aI0
aI1
aI0
aI1
aI1
aI0
aI1
aI1
aI0
aI0
aI0
aI2
aa(lp363
I1
aI0
aI1
aI0
aI1
aI1
aI0
aI1
aI0
aI0
aI0
aI0
aI2
aa(lp364
I1
aI0
aI0
aI0
aI1
aI1
aI0
aI1
aI0
aI0
aI0
aI0
aI2
aa(lp365
I1
aI0
aI1
aI0
aI1
aI1
aI0
aI1
aI1
aI0
aI2
aI0
aI2
aa(lp366
I1
aI0
aI1
aI0
aI3
aI1
aI0
aI1
aI1
aI0
aI0
aI0
aI2
aa(lp367
I1
aI0
aI1
aI0
aI1
aI1
aI0
aI1
aI0
aI0
aI0
aI0
aI2
aa(lp368
I1
aI0
aI1
aI0
aI1
aI1
aI0
aI1
aI1
aI0
aI0
aI0
aI2
aa(lp369
I1
aI0
aI1
aI0
aI1
aI1
aI0
aI1
aI0
aI0
aI0
aI0
aI2
aa(lp370
I1
aI0
aI1
aI0
aI1
aI1
aI0
aI1
aI1
aI0
aI2
aI0
aI2
aa(lp371
I1
aI2
aI4
aI0
aI1
aI1
aI0
aI1
aI0
aI0
aI2
aI0
aI2
aa(lp372
I1
aI0
aI1
aI0
aI1
aI1
aI1
aI3
aI1
aI0
aI0
aI0
aI2
aa(lp373
I1
aI0
aI1
aI0
aI1
aI1
aI0
aI2
aI1
aI0
aI2
aI0
aI2
aa(lp374
I1
aI0
aI1
aI0
aI1
aI1
aI0
aI1
aI1
aI0
aI0
aI0
aI2
aa(lp375
I1
aI0
aI1
aI0
aI1
aI1
aI0
aI1
aI0
aI0
aI0
aI0
aI2
aa(lp376
I1
aI0
aI1
aI0
aI1
aI1
aI0
aI2
aI1
aI0
aI2
aI0
aI2
aa(lp377
I1
aI0
aI1
aI0
aI1
aI1
aI1
aI3
aI1
aI0
aI0
aI0
aI2
aa(lp378
I1
aI0
aI2
aI0
aI1
aI1
aI0
aI2
aI1
aI0
aI0
aI0
aI2
aa(lp379
I1
aI0
aI4
aI0
aI1
aI1
aI0
aI1
aI0
aI0
aI0
aI0
aI2
aa(lp380
I1
aI0
aI1
aI0
aI1
aI1
aI1
aI3
aI1
aI0
aI0
aI0
aI2
aa(lp381
I1
aI0
aI1
aI0
aI1
aI1
aI1
aI3
aI0
aI0
aI0
aI0
aI2
aa(lp382
I1
aI0
aI4
aI0
aI3
aI1
aI2
aI3
aI0
aI0
aI0
aI0
aI2
aa(lp383
I1
aI0
aI0
aI0
aI1
aI1
aI0
aI1
aI0
aI0
aI0
aI0
aI2
aa(lp384
I1
aI0
aI1
aI0
aI3
aI1
aI0
aI2
aI1
aI0
aI0
aI0
aI2
aa(lp385
I1
aI0
aI1
aI0
aI1
aI1
aI0
aI3
aI0
aI0
aI0
aI0
aI2
aa(lp386
I1
aI0
aI1
aI0
aI4
aI0
aI0
aI3
aI0
aI0
aI0
aI0
aI2
aa(lp387
I1
aI3
aI4
aI1
aI5
aI0
aI1
aI3
aI0
aI0
aI0
aI0
aI2
aa(lp388
I1
aI0
aI4
aI0
aI4
aI0
aI0
aI3
aI0
aI0
aI2
aI0
aI2
aa(lp389
I1
aI0
aI1
aI0
aI1
aI0
aI0
aI3
aI0
aI0
aI0
aI0
aI2
aa(lp390
I1
aI0
aI0
aI0
aI1
aI1
aI0
aI3
aI0
aI0
aI0
aI0
aI2
aa(lp391
I1
aI0
aI0
aI0
aI1
aI0
aI0
aI0
aI1
aI0
aI0
aI0
aI2
aa(lp392
I1
aI2
aI4
aI1
aI5
aI1
aI2
aI3
aI1
aI0
aI0
aI0
aI2
aa(lp393
I1
aI0
aI1
aI0
aI1
aI1
aI0
aI2
aI1
aI0
aI0
aI0
aI2
aa(lp394
I1
aI0
aI0
aI0
aI4
aI1
aI0
aI3
aI0
aI0
aI0
aI0
aI2
aa(lp395
I1
aI0
aI1
aI0
aI1
aI1
aI0
aI3
aI1
aI0
aI0
aI0
aI2
aa(lp396
I1
aI0
aI0
aI0
aI4
aI0
aI0
aI3
aI1
aI0
aI2
aI0
aI2
aa(lp397
I1
aI0
aI1
aI0
aI2
aI1
aI1
aI3
aI1
aI0
aI0
aI0
aI2
aa(lp398
I1
aI0
aI0
aI0
aI4
aI1
aI0
aI3
aI0
aI0
aI2
aI0
aI2
aa(lp399
I1
aI0
aI1
aI1
aI5
aI1
aI0
aI3
aI1
aI0
aI0
aI0
aI2
aa(lp400
I1
aI0
aI4
aI0
aI4
aI1
aI0
aI1
aI0
aI0
aI0
aI0
aI2
aa(lp401
I1
aI0
aI2
aI0
aI4
aI1
aI0
aI3
aI0
aI0
aI0
aI0
aI2
aa(lp402
I1
aI0
aI3
aI0
aI3
aI1
aI0
aI1
aI1
aI0
aI0
aI0
aI2
aa(lp403
I1
aI1
aI4
aI0
aI1
aI1
aI1
aI3
aI0
aI0
aI0
aI0
aI2
aa(lp404
I1
aI0
aI1
aI0
aI1
aI1
aI0
aI1
aI1
aI0
aI0
aI0
aI2
aa(lp405
I1
aI0
aI1
aI0
aI4
aI1
aI0
aI1
aI0
aI0
aI0
aI0
aI2
aa(lp406
I1
aI0
aI1
aI0
aI4
aI1
aI0
aI1
aI0
aI0
aI0
aI0
aI2
aa(lp407
I1
aI0
aI1
aI0
aI3
aI1
aI0
aI3
aI0
aI0
aI0
aI0
aI2
aa(lp408
I1
aI2
aI4
aI0
aI2
aI1
aI1
aI3
aI0
aI0
aI0
aI0
aI2
aa(lp409
I1
aI0
aI1
aI0
aI1
aI1
aI0
aI2
aI1
aI0
aI0
aI0
aI2
aa(lp410
I1
aI1
aI3
aI0
aI4
aI1
aI1
aI3
aI0
aI0
aI0
aI0
aI2
aa(lp411
I1
aI1
aI4
aI0
aI1
aI1
aI1
aI3
aI0
aI0
aI0
aI0
aI2
aa(lp412
I1
aI0
aI1
aI0
aI4
aI1
aI0
aI1
aI0
aI0
aI0
aI0
aI2
aa(lp413
I1
aI0
aI1
aI0
aI1
aI1
aI1
aI3
aI0
aI0
aI0
aI0
aI2
aa(lp414
I1
aI0
aI1
aI0
aI1
aI1
aI1
aI3
aI0
aI0
aI0
aI0
aI2
aa(lp415
I1
aI0
aI1
aI0
aI1
aI1
aI0
aI1
aI0
aI0
aI0
aI0
aI2
aa(lp416
I1
aI0
aI2
aI0
aI1
aI1
aI0
aI1
aI1
aI0
aI0
aI0
aI2
aa(lp417
I1
aI0
aI1
aI0
aI4
aI1
aI0
aI2
aI1
aI0
aI0
aI0
aI2
aa(lp418
I1
aI0
aI1
aI0
aI1
aI1
aI0
aI1
aI0
aI0
aI0
aI0
aI2
aa(lp419
I1
aI0
aI1
aI0
aI1
aI1
aI0
aI3
aI0
aI0
aI0
aI2
aI2
aa(lp420
I1
aI0
aI1
aI0
aI4
aI1
aI0
aI1
aI1
aI0
aI0
aI0
aI2
aa(lp421
I1
aI2
aI4
aI0
aI1
aI1
aI0
aI3
aI0
aI0
aI0
aI0
aI2
aa(lp422
I1
aI0
aI1
aI0
aI1
aI1
aI1
aI3
aI0
aI0
aI0
aI0
aI2
aa(lp423
I1
aI2
aI4
aI0
aI1
aI1
aI1
aI3
aI0
aI0
aI0
aI0
aI2
aa(lp424
I1
aI0
aI4
aI0
aI1
aI1
aI0
aI3
aI0
aI0
aI0
aI0
aI2
aa(lp425
I1
aI3
aI4
aI1
aI5
aI1
aI3
aI3
aI1
aI0
aI2
aI0
aI2
aa(lp426
I1
aI0
aI0
aI0
aI1
aI1
aI0
aI3
aI1
aI0
aI2
aI0
aI2
aa(lp427
I1
aI0
aI1
aI0
aI1
aI1
aI0
aI1
aI0
aI0
aI0
aI2
aI2
aa(lp428
I1
aI0
aI1
aI0
aI1
aI1
aI0
aI1
aI1
aI0
aI0
aI0
aI2
aa(lp429
I1
aI0
aI0
aI0
aI3
aI0
aI1
aI3
aI0
aI0
aI0
aI2
aI2
aa(lp430
I1
aI0
aI1
aI0
aI1
aI1
aI0
aI2
aI1
aI0
aI0
aI0
aI2
aa(lp431
I1
aI0
aI1
aI0
aI1
aI1
aI0
aI1
aI1
aI0
aI0
aI0
aI2
aa(lp432
I1
aI0
aI1
aI0
aI1
aI1
aI0
aI1
aI1
aI0
aI0
aI0
aI2
aa(lp433
I1
aI3
aI4
aI0
aI1
aI1
aI3
aI3
aI1
aI0
aI0
aI0
aI2
aa(lp434
I1
aI0
aI1
aI0
aI1
aI1
aI0
aI1
aI0
aI0
aI0
aI0
aI2
aa(lp435
I1
aI0
aI1
aI0
aI2
aI1
aI0
aI1
aI0
aI0
aI0
aI0
aI2
aa(lp436
I1
aI0
aI1
aI0
aI1
aI1
aI0
aI1
aI0
aI0
aI0
aI2
aI2
aa(lp437
I1
aI1
aI4
aI0
aI3
aI1
aI1
aI3
aI0
aI0
aI0
aI0
aI2
aa(lp438
I1
aI0
aI1
aI0
aI1
aI1
aI0
aI1
aI1
aI0
aI2
aI0
aI2
aa(lp439
I1
aI0
aI1
aI0
aI1
aI1
aI0
aI1
aI1
aI0
aI0
aI0
aI2
aa(lp440
I1
aI0
aI4
aI0
aI1
aI1
aI0
aI1
aI0
aI0
aI0
aI0
aI2
aa(lp441
I1
aI0
aI0
aI0
aI1
aI1
aI0
aI1
aI0
aI0
aI2
aI0
aI2
aa(lp442
I1
aI0
aI1
aI0
aI1
aI1
aI0
aI3
aI0
aI0
aI0
aI0
aI2
aa(lp443
I1
aI0
aI2
aI0
aI3
aI0
aI0
aI3
aI1
aI0
aI0
aI0
aI2
aa(lp444
I1
aI0
aI1
aI0
aI1
aI1
aI0
aI3
aI1
aI0
aI0
aI0
aI2
aa(lp445
I1
aI0
aI1
aI0
aI1
aI1
aI0
aI3
aI0
aI0
aI2
aI0
aI2
aa(lp446
I1
aI0
aI0
aI0
aI1
aI1
aI0
aI3
aI0
aI0
aI0
aI0
aI2
aa(lp447
I1
aI0
aI0
aI0
aI1
aI1
aI0
aI1
aI1
aI0
aI0
aI0
aI2
aa(lp448
I1
aI0
aI1
aI0
aI1
aI1
aI0
aI1
aI1
aI0
aI0
aI0
aI2
aa(lp449
I1
aI0
aI1
aI0
aI1
aI1
aI0
aI1
aI1
aI0
aI0
aI0
aI2
aa(lp450
I1
aI0
aI1
aI0
aI1
aI1
aI0
aI2
aI1
aI0
aI2
aI0
aI2
aa(lp451
I1
aI0
aI1
aI0
aI1
aI1
aI0
aI3
aI1
aI0
aI0
aI0
aI2
aa(lp452
I1
aI0
aI0
aI0
aI4
aI1
aI0
aI1
aI0
aI0
aI2
aI0
aI2
aa(lp453
I1
aI0
aI4
aI0
aI4
aI0
aI0
aI2
aI1
aI0
aI0
aI0
aI2
aa(lp454
I1
aI0
aI1
aI0
aI1
aI1
aI0
aI1
aI0
aI0
aI0
aI0
aI2
aa(lp455
I1
aI0
aI0
aI0
aI1
aI1
aI0
aI3
aI0
aI0
aI0
aI0
aI2
aa(lp456
I1
aI0
aI1
aI0
aI1
aI1
aI0
aI1
aI0
aI0
aI0
aI0
aI2
aa(lp457
I1
aI0
aI0
aI0
aI1
aI1
aI0
aI3
aI0
aI0
aI0
aI0
aI2
aa(lp458
I1
aI0
aI1
aI0
aI1
aI1
aI1
aI3
aI0
aI0
aI2
aI0
aI2
aa(lp459
I1
aI0
aI1
aI0
aI1
aI1
aI0
aI1
aI1
aI0
aI0
aI0
aI2
aa(lp460
I1
aI0
aI0
aI0
aI1
aI1
aI0
aI1
aI0
aI0
aI0
aI0
aI2
aa(lp461
I1
aI2
aI4
aI1
aI5
aI1
aI1
aI3
aI0
aI0
aI0
aI0
aI2
aa(lp462
I1
aI0
aI0
aI0
aI4
aI0
aI0
aI1
aI0
aI0
aI2
aI0
aI2
aa(lp463
I1
aI0
aI0
aI1
aI5
aI1
aI1
aI3
aI0
aI0
aI0
aI2
aI2
aa(lp464
I1
aI0
aI1
aI0
aI1
aI1
aI0
aI1
aI1
aI0
aI0
aI0
aI2
aa(lp465
I1
aI0
aI0
aI0
aI1
aI1
aI0
aI1
aI1
aI0
aI0
aI0
aI2
aa(lp466
I1
aI0
aI1
aI0
aI1
aI1
aI0
aI1
aI0
aI0
aI2
aI2
aI2
aa(lp467
I1
aI2
aI4
aI0
aI1
aI1
aI0
aI1
aI0
aI0
aI0
aI2
aI2
aa(lp468
I1
aI0
aI2
aI0
aI2
aI1
aI0
aI3
aI0
aI0
aI2
aI2
aI2
aa(lp469
I1
aI0
aI1
aI0
aI1
aI1
aI0
aI1
aI0
aI0
aI0
aI0
aI2
aa(lp470
I1
aI0
aI1
aI0
aI1
aI1
aI0
aI3
aI0
aI0
aI0
aI0
aI2
aa(lp471
I1
aI0
aI1
aI0
aI1
aI1
aI0
aI1
aI0
aI0
aI0
aI0
aI2
aa(lp472
I1
aI0
aI1
aI0
aI1
aI1
aI0
aI1
aI1
aI0
aI0
aI0
aI2
aa(lp473
I1
aI0
aI1
aI0
aI4
aI0
aI1
aI3
aI0
aI0
aI0
aI2
aI2
aa(lp474
I1
aI0
aI1
aI0
aI1
aI0
aI0
aI1
aI1
aI0
aI0
aI0
aI2
aa(lp475
I1
aI0
aI0
aI0
aI1
aI1
aI0
aI3
aI0
aI0
aI0
aI0
aI2
aa(lp476
I1
aI0
aI0
aI0
aI4
aI0
aI1
aI3
aI0
aI0
aI1
aI0
aI2
aa(lp477
I1
aI0
aI1
aI0
aI1
aI1
aI1
aI3
aI0
aI0
aI0
aI0
aI2
aa(lp478
I1
aI2
aI4
aI0
aI1
aI0
aI0
aI3
aI0
aI0
aI0
aI0
aI2
aa(lp479
I1
aI0
aI1
aI0
aI1
aI1
aI0
aI1
aI0
aI0
aI0
aI0
aI2
aa(lp480
I1
aI0
aI1
aI0
aI1
aI1
aI1
aI3
aI0
aI0
aI2
aI0
aI2
aa(lp481
I1
aI0
aI1
aI0
aI1
aI1
aI0
aI1
aI0
aI0
aI2
aI0
aI2
aa(lp482
I1
aI0
aI1
aI0
aI1
aI1
aI0
aI1
aI0
aI0
aI0
aI0
aI2
aa(lp483
I1
aI0
aI1
aI0
aI1
aI1
aI1
aI3
aI0
aI0
aI0
aI0
aI2
aa(lp484
I1
aI0
aI1
aI0
aI4
aI0
aI0
aI1
aI0
aI0
aI0
aI2
aI2
aa(lp485
I1
aI0
aI1
aI0
aI1
aI1
aI0
aI1
aI0
aI0
aI0
aI0
aI2
aa(lp486
I1
aI0
aI0
aI0
aI1
aI1
aI0
aI1
aI0
aI0
aI2
aI0
aI2
aa(lp487
I1
aI0
aI1
aI0
aI1
aI1
aI0
aI3
aI0
aI0
aI0
aI0
aI2
aa(lp488
I1
aI0
aI0
aI0
aI1
aI1
aI0
aI1
aI1
aI0
aI0
aI1
aI2
aa(lp489
I1
aI0
aI1
aI0
aI1
aI0
aI0
aI1
aI0
aI0
aI0
aI2
aI2
aa(lp490
I1
aI0
aI1
aI0
aI1
aI1
aI0
aI1
aI1
aI0
aI0
aI0
aI2
aa(lp491
I1
aI0
aI1
aI0
aI4
aI0
aI0
aI1
aI1
aI0
aI0
aI0
aI2
aa(lp492
I1
aI0
aI1
aI0
aI1
aI1
aI0
aI1
aI1
aI0
aI0
aI0
aI2
aa(lp493
I1
aI0
aI1
aI1
aI1
aI1
aI0
aI1
aI0
aI0
aI0
aI0
aI2
aa(lp494
I1
aI2
aI4
aI0
aI4
aI1
aI0
aI1
aI0
aI0
aI0
aI0
aI2
aa(lp495
I1
aI0
aI1
aI0
aI4
aI1
aI0
aI1
aI0
aI0
aI0
aI0
aI2
aa(lp496
I1
aI0
aI1
aI0
aI1
aI1
aI0
aI2
aI1
aI0
aI0
aI0
aI2
aa(lp497
I1
aI0
aI0
aI0
aI4
aI1
aI1
aI3
aI0
aI0
aI0
aI0
aI2
aa(lp498
I1
aI0
aI1
aI0
aI1
aI1
aI0
aI2
aI1
aI0
aI0
aI0
aI2
aa(lp499
I1
aI0
aI4
aI1
aI5
aI1
aI0
aI1
aI0
aI0
aI0
aI0
aI2
aa(lp500
I1
aI0
aI0
aI0
aI1
aI1
aI0
aI1
aI0
aI0
aI0
aI0
aI2
aa(lp501
I1
aI0
aI1
aI0
aI1
aI1
aI1
aI3
aI0
aI0
aI2
aI0
aI2
aa(lp502
I1
aI0
aI1
aI0
aI1
aI1
aI0
aI2
aI1
aI0
aI0
aI0
aI2
aa(lp503
I1
aI0
aI1
aI0
aI1
aI1
aI0
aI1
aI1
aI0
aI0
aI0
aI2
aa(lp504
I1
aI0
aI1
aI0
aI1
aI1
aI0
aI3
aI0
aI0
aI2
aI2
aI2
aa(lp505
I1
aI0
aI1
aI0
aI1
aI1
aI0
aI1
aI1
aI0
aI0
aI0
aI2
aa(lp506
I1
aI0
aI1
aI0
aI1
aI1
aI0
aI1
aI0
aI0
aI0
aI0
aI2
aa(lp507
I1
aI0
aI0
aI0
aI1
aI0
aI0
aI1
aI0
aI0
aI0
aI0
aI2
aa(lp508
I1
aI0
aI1
aI0
aI1
aI1
aI0
aI1
aI1
aI0
aI0
aI0
aI2
aa(lp509
I1
aI0
aI1
aI0
aI1
aI1
aI1
aI3
aI0
aI0
aI0
aI0
aI2
aa(lp510
I1
aI0
aI1
aI0
aI1
aI1
aI0
aI1
aI1
aI0
aI0
aI0
aI2
aa(lp511
I1
aI0
aI0
aI0
aI1
aI1
aI0
aI3
aI0
aI0
aI0
aI0
aI2
aa(lp512
I1
aI0
aI1
aI0
aI1
aI1
aI0
aI1
aI1
aI0
aI0
aI0
aI2
aa(lp513
I1
aI0
aI1
aI0
aI1
aI1
aI1
aI3
aI0
aI0
aI0
aI0
aI2
aa(lp514
I1
aI0
aI1
aI0
aI1
aI1
aI1
aI3
aI0
aI0
aI0
aI0
aI2
aa(lp515
I1
aI3
aI4
aI0
aI1
aI1
aI3
aI3
aI1
aI0
aI0
aI0
aI2
aa(lp516
I1
aI0
aI1
aI0
aI1
aI1
aI0
aI1
aI0
aI0
aI2
aI0
aI2
aa(lp517
I1
aI0
aI1
aI0
aI1
aI1
aI3
aI3
aI1
aI0
aI0
aI0
aI2
aa(lp518
I1
aI0
aI1
aI0
aI1
aI1
aI0
aI1
aI0
aI0
aI0
aI2
aI2
aa(lp519
I1
aI0
aI1
aI0
aI1
aI1
aI0
aI1
aI1
aI0
aI2
aI0
aI2
aa(lp520
I1
aI0
aI1
aI0
aI1
aI1
aI0
aI1
aI1
aI0
aI0
aI0
aI2
aa(lp521
I1
aI0
aI1
aI0
aI1
aI1
aI0
aI1
aI0
aI0
aI0
aI0
aI2
aa(lp522
I1
aI0
aI1
aI0
aI1
aI1
aI0
aI1
aI0
aI0
aI0
aI0
aI2
aa(lp523
I1
aI0
aI1
aI0
aI1
aI1
aI0
aI1
aI1
aI0
aI0
aI0
aI2
aa(lp524
I1
aI3
aI4
aI0
aI1
aI1
aI3
aI3
aI1
aI0
aI0
aI0
aI2
aa(lp525
I1
aI1
aI4
aI0
aI1
aI1
aI3
aI3
aI1
aI0
aI0
aI0
aI2
aa(lp526
I1
aI0
aI1
aI0
aI1
aI1
aI0
aI1
aI0
aI0
aI0
aI0
aI2
aa(lp527
I1
aI0
aI1
aI0
aI1
aI1
aI0
aI1
aI1
aI0
aI2
aI2
aI2
aa(lp528
I1
aI0
aI0
aI0
aI1
aI1
aI0
aI1
aI1
aI0
aI0
aI0
aI2
aa(lp529
I1
aI0
aI1
aI0
aI1
aI1
aI0
aI2
aI1
aI0
aI0
aI0
aI2
aa(lp530
I1
aI0
aI2
aI0
aI1
aI1
aI0
aI1
aI0
aI0
aI0
aI0
aI2
aa(lp531
I1
aI0
aI0
aI0
aI1
aI1
aI0
aI1
aI1
aI0
aI0
aI0
aI2
aa(lp532
I1
aI0
aI1
aI0
aI2
aI1
aI0
aI0
aI1
aI0
aI0
aI0
aI2
aa(lp533
I1
aI3
aI4
aI0
aI2
aI1
aI0
aI3
aI0
aI0
aI2
aI0
aI2
aa(lp534
I1
aI0
aI1
aI0
aI1
aI1
aI1
aI3
aI0
aI0
aI0
aI0
aI2
aa(lp535
I1
aI0
aI1
aI0
aI0
aI1
aI0
aI1
aI1
aI0
aI0
aI0
aI2
aa(lp536
I1
aI0
aI1
aI0
aI2
aI1
aI1
aI3
aI0
aI0
aI0
aI0
aI2
aa(lp537
I1
aI0
aI4
aI0
aI1
aI1
aI0
aI1
aI0
aI0
aI0
aI0
aI2
aa(lp538
I1
aI0
aI1
aI0
aI1
aI1
aI0
aI3
aI1
aI0
aI0
aI1
aI2
aa(lp539
I1
aI0
aI0
aI0
aI1
aI1
aI0
aI1
aI0
aI0
aI2
aI0
aI2
aa(lp540
I1
aI0
aI0
aI0
aI1
aI0
aI0
aI1
aI0
aI0
aI0
aI0
aI2
aa(lp541
I1
aI0
aI1
aI0
aI1
aI1
aI0
aI3
aI0
aI0
aI2
aI0
aI2
aa(lp542
I1
aI0
aI1
aI0
aI1
aI1
aI1
aI3
aI1
aI0
aI0
aI0
aI2
aa(lp543
I1
aI0
aI0
aI0
aI2
aI0
aI1
aI3
aI0
aI0
aI0
aI0
aI2
aa(lp544
I1
aI0
aI1
aI1
aI5
aI1
aI0
aI3
aI0
aI0
aI0
aI0
aI2
aa(lp545
I1
aI0
aI1
aI0
aI1
aI1
aI0
aI1
aI0
aI0
aI0
aI0
aI2
aa(lp546
I1
aI0
aI0
aI0
aI1
aI1
aI0
aI3
aI0
aI0
aI0
aI0
aI2
aa(lp547
I1
aI0
aI0
aI0
aI0
aI1
aI1
aI3
aI0
aI0
aI0
aI0
aI2
aa(lp548
I1
aI0
aI1
aI0
aI1
aI1
aI0
aI1
aI1
aI0
aI2
aI2
aI2
aa(lp549
I1
aI0
aI1
aI0
aI1
aI1
aI1
aI3
aI0
aI0
aI2
aI1
aI2
aa(lp550
I1
aI0
aI0
aI1
aI5
aI0
aI0
aI3
aI0
aI0
aI0
aI0
aI2
aa(lp551
I1
aI0
aI1
aI0
aI1
aI1
aI0
aI1
aI1
aI0
aI0
aI0
aI2
aa(lp552
I1
aI0
aI0
aI0
aI1
aI1
aI0
aI1
aI1
aI0
aI0
aI0
aI2
aa(lp553
I1
aI0
aI0
aI0
aI1
aI1
aI0
aI1
aI0
aI0
aI0
aI0
aI2
aa(lp554
I1
aI1
aI4
aI1
aI5
aI1
aI0
aI3
aI0
aI0
aI0
aI0
aI2
aa(lp555
I1
aI0
aI1
aI0
aI1
aI1
aI0
aI1
aI1
aI0
aI0
aI0
aI2
aa(lp556
I1
aI0
aI1
aI0
aI1
aI1
aI0
aI2
aI1
aI0
aI0
aI0
aI2
aa(lp557
I1
aI0
aI1
aI0
aI1
aI1
aI0
aI1
aI1
aI0
aI0
aI0
aI2
aa(lp558
I1
aI0
aI1
aI0
aI1
aI1
aI0
aI1
aI0
aI0
aI0
aI0
aI2
aa(lp559
I1
aI0
aI1
aI0
aI1
aI1
aI0
aI1
aI0
aI0
aI2
aI0
aI2
aa(lp560
I1
aI0
aI0
aI0
aI1
aI1
aI0
aI1
aI0
aI0
aI0
aI0
aI2
aa(lp561
I1
aI0
aI1
aI0
aI1
aI1
aI0
aI2
aI1
aI0
aI0
aI0
aI2
aa(lp562
I1
aI0
aI1
aI0
aI4
aI1
aI0
aI1
aI1
aI0
aI2
aI2
aI2
aa(lp563
I1
aI0
aI1
aI0
aI1
aI1
aI0
aI1
aI0
aI0
aI0
aI0
aI2
aa(lp564
I1
aI0
aI2
aI0
aI1
aI1
aI0
aI3
aI0
aI0
aI0
aI0
aI2
aa(lp565
I1
aI0
aI1
aI0
aI1
aI1
aI0
aI1
aI0
aI0
aI0
aI0
aI2
aa(lp566
I1
aI0
aI1
aI0
aI1
aI1
aI0
aI1
aI1
aI0
aI0
aI0
aI2
aa(lp567
I1
aI1
aI4
aI0
aI5
aI1
aI0
aI1
aI0
aI0
aI0
aI0
aI2
aa(lp568
I1
aI0
aI1
aI0
aI1
aI1
aI0
aI1
aI1
aI0
aI0
aI0
aI2
aa(lp569
I1
aI0
aI1
aI0
aI1
aI1
aI0
aI2
aI1
aI0
aI0
aI0
aI2
aa(lp570
I1
aI0
aI1
aI0
aI1
aI1
aI0
aI3
aI0
aI0
aI0
aI0
aI2
aa(lp571
I1
aI0
aI1
aI0
aI1
aI1
aI0
aI2
aI1
aI0
aI0
aI0
aI2
aa(lp572
I1
aI0
aI0
aI0
aI2
aI1
aI0
aI1
aI0
aI0
aI0
aI0
aI2
aa(lp573
I1
aI3
aI4
aI0
aI4
aI1
aI0
aI1
aI0
aI0
aI0
aI0
aI2
aa(lp574
I1
aI3
aI4
aI0
aI1
aI1
aI3
aI3
aI1
aI0
aI0
aI0
aI2
aa(lp575
I1
aI0
aI1
aI0
aI1
aI1
aI0
aI1
aI1
aI0
aI0
aI0
aI2
aa(lp576
I1
aI0
aI1
aI0
aI1
aI1
aI0
aI1
aI1
aI0
aI0
aI0
aI2
aa(lp577
I1
aI0
aI1
aI0
aI1
aI1
aI0
aI2
aI1
aI0
aI0
aI0
aI2
aa(lp578
I1
aI0
aI1
aI0
aI1
aI1
aI0
aI1
aI1
aI0
aI0
aI0
aI2
aa(lp579
I1
aI0
aI0
aI0
aI1
aI1
aI0
aI1
aI0
aI0
aI0
aI0
aI2
aa(lp580
I1
aI0
aI2
aI0
aI2
aI1
aI0
aI3
aI0
aI0
aI0
aI0
aI2
aa(lp581
I1
aI0
aI0
aI1
aI5
aI1
aI1
aI3
aI0
aI0
aI0
aI2
aI2
aa(lp582
I1
aI0
aI1
aI0
aI2
aI1
aI0
aI1
aI0
aI0
aI2
aI0
aI2
aa(lp583
I1
aI0
aI1
aI0
aI4
aI1
aI0
aI2
aI1
aI0
aI0
aI0
aI2
aa(lp584
I1
aI0
aI1
aI0
aI1
aI1
aI0
aI1
aI0
aI0
aI0
aI2
aI2
aa(lp585
I1
aI0
aI1
aI0
aI1
aI1
aI0
aI1
aI0
aI0
aI2
aI0
aI2
aa(lp586
I1
aI1
aI4
aI0
aI1
aI1
aI0
aI1
aI0
aI0
aI0
aI0
aI2
aa(lp587
I1
aI0
aI1
aI0
aI1
aI1
aI0
aI1
aI1
aI0
aI2
aI0
aI2
aa(lp588
I1
aI0
aI1
aI0
aI1
aI1
aI0
aI1
aI1
aI0
aI0
aI0
aI2
aa(lp589
I1
aI3
aI4
aI1
aI5
aI1
aI0
aI3
aI0
aI0
aI0
aI2
aI2
aa(lp590
I1
aI0
aI1
aI0
aI1
aI1
aI0
aI3
aI0
aI0
aI0
aI1
aI2
aa(lp591
I1
aI2
aI4
aI0
aI1
aI1
aI0
aI1
aI1
aI0
aI1
aI0
aI2
aa(lp592
I1
aI0
aI2
aI0
aI1
aI1
aI1
aI3
aI0
aI0
aI0
aI0
aI2
aa(lp593
I1
aI1
aI4
aI0
aI2
aI1
aI0
aI3
aI0
aI0
aI0
aI0
aI2
aa(lp594
I1
aI0
aI1
aI0
aI4
aI1
aI0
aI3
aI1
aI0
aI0
aI0
aI2
aa(lp595
I1
aI0
aI1
aI0
aI1
aI1
aI1
aI3
aI0
aI0
aI0
aI0
aI2
aa(lp596
I1
aI0
aI0
aI0
aI1
aI1
aI3
aI3
aI1
aI0
aI0
aI0
aI2
aa(lp597
I1
aI3
aI4
aI1
aI5
aI1
aI1
aI3
aI1
aI0
aI0
aI0
aI2
aa(lp598
I1
aI0
aI0
aI0
aI1
aI1
aI0
aI1
aI1
aI0
aI2
aI0
aI2
aa(lp599
I1
aI0
aI4
aI0
aI1
aI1
aI0
aI1
aI1
aI0
aI0
aI0
aI2
aa(lp600
I1
aI2
aI4
aI0
aI1
aI0
aI0
aI3
aI0
aI0
aI0
aI0
aI2
aa(lp601
I1
aI0
aI4
aI1
aI5
aI1
aI0
aI1
aI0
aI0
aI0
aI0
aI2
aa(lp602
I1
aI0
aI1
aI1
aI1
aI1
aI0
aI1
aI0
aI0
aI0
aI0
aI2
aa(lp603
I1
aI0
aI1
aI0
aI4
aI1
aI0
aI1
aI0
aI0
aI1
aI0
aI2
aa(lp604
I1
aI0
aI1
aI0
aI1
aI1
aI0
aI3
aI1
aI0
aI0
aI0
aI2
aa(lp605
I1
aI0
aI4
aI0
aI1
aI1
aI0
aI1
aI1
aI0
aI0
aI0
aI2
aa(lp606
I1
aI0
aI1
aI0
aI1
aI0
aI0
aI3
aI1
aI0
aI2
aI0
aI2
aa(lp607
I1
aI0
aI0
aI1
aI5
aI1
aI0
aI1
aI0
aI0
aI0
aI0
aI2
aa(lp608
I1
aI0
aI0
aI0
aI1
aI1
aI0
aI3
aI0
aI0
aI0
aI0
aI2
aa(lp609
I1
aI0
aI1
aI0
aI1
aI1
aI0
aI1
aI0
aI0
aI0
aI0
aI2
aa(lp610
I1
aI0
aI0
aI0
aI3
aI1
aI1
aI3
aI0
aI0
aI0
aI0
aI2
aa(lp611
I1
aI0
aI0
aI0
aI2
aI1
aI0
aI1
aI0
aI0
aI0
aI0
aI2
aa(lp612
I1
aI0
aI1
aI0
aI1
aI1
aI0
aI1
aI0
aI0
aI0
aI2
aI2
aa(lp613
I1
aI0
aI1
aI0
aI1
aI1
aI0
aI1
aI0
aI0
aI0
aI0
aI2
aa(lp614
I1
aI0
aI1
aI0
aI2
aI1
aI0
aI1
aI1
aI0
aI0
aI0
aI2
aa(lp615
I1
aI0
aI0
aI0
aI4
aI1
aI0
aI1
aI0
aI0
aI2
aI0
aI2
aa(lp616
I1
aI0
aI0
aI0
aI4
aI1
aI0
aI3
aI0
aI0
aI0
aI0
aI2
aa(lp617
I1
aI3
aI4
aI0
aI3
aI1
aI0
aI3
aI0
aI0
aI0
aI0
aI2
aa(lp618
I1
aI0
aI1
aI0
aI1
aI1
aI1
aI3
aI1
aI0
aI0
aI0
aI2
aa(lp619
I1
aI0
aI1
aI0
aI3
aI1
aI0
aI1
aI1
aI0
aI0
aI0
aI2
aa(lp620
I1
aI0
aI1
aI0
aI1
aI1
aI0
aI3
aI0
aI0
aI0
aI0
aI2
aa(lp621
I1
aI0
aI1
aI0
aI2
aI1
aI0
aI1
aI0
aI0
aI2
aI0
aI2
aa(lp622
I1
aI1
aI4
aI0
aI1
aI1
aI1
aI3
aI0
aI0
aI0
aI0
aI2
aa(lp623
I1
aI0
aI4
aI0
aI1
aI1
aI0
aI1
aI0
aI0
aI0
aI0
aI2
aa(lp624
I1
aI0
aI1
aI0
aI1
aI1
aI0
aI3
aI1
aI0
aI0
aI0
aI2
aa(lp625
I1
aI0
aI1
aI0
aI4
aI1
aI0
aI3
aI0
aI0
aI0
aI0
aI2
aa(lp626
I1
aI0
aI1
aI0
aI1
aI1
aI0
aI1
aI0
aI0
aI0
aI0
aI2
aa(lp627
I1
aI0
aI1
aI0
aI4
aI1
aI0
aI1
aI0
aI0
aI0
aI0
aI2
aa(lp628
I1
aI0
aI1
aI0
aI1
aI1
aI0
aI1
aI0
aI0
aI0
aI0
aI2
aa(lp629
I1
aI0
aI1
aI0
aI1
aI1
aI0
aI1
aI1
aI0
aI2
aI0
aI2
aa(lp630
I1
aI0
aI4
aI0
aI1
aI1
aI0
aI1
aI0
aI0
aI0
aI0
aI2
aa(lp631
I1
aI0
aI1
aI0
aI1
aI1
aI0
aI1
aI0
aI0
aI0
aI0
aI2
aa(lp632
I1
aI0
aI2
aI0
aI1
aI1
aI0
aI2
aI1
aI0
aI0
aI0
aI2
aa(lp633
I1
aI0
aI1
aI0
aI1
aI1
aI0
aI3
aI0
aI0
aI0
aI0
aI2
aa(lp634
I1
aI0
aI2
aI0
aI1
aI1
aI0
aI1
aI0
aI0
aI0
aI0
aI2
aa(lp635
I1
aI0
aI0
aI0
aI1
aI1
aI0
aI3
aI0
aI0
aI0
aI2
aI2
aa(lp636
I1
aI0
aI1
aI0
aI1
aI1
aI0
aI1
aI1
aI0
aI0
aI0
aI2
aa(lp637
I1
aI0
aI4
aI1
aI5
aI1
aI0
aI1
aI1
aI0
aI0
aI0
aI2
aa(lp638
I1
aI0
aI0
aI0
aI4
aI0
aI0
aI3
aI0
aI0
aI0
aI0
aI2
aa(lp639
I1
aI0
aI0
aI0
aI1
aI1
aI0
aI3
aI1
aI0
aI2
aI0
aI2
aa(lp640
I1
aI0
aI4
aI0
aI1
aI0
aI0
aI3
aI0
aI0
aI0
aI0
aI2
aa(lp641
I1
aI0
aI0
aI0
aI3
aI1
aI0
aI1
aI0
aI0
aI0
aI0
aI2
aa(lp642
I1
aI0
aI1
aI0
aI1
aI1
aI0
aI1
aI1
aI0
aI0
aI0
aI2
aa(lp643
I1
aI0
aI1
aI0
aI1
aI1
aI0
aI3
aI0
aI0
aI0
aI2
aI2
aa(lp644
I1
aI0
aI1
aI0
aI1
aI1
aI1
aI3
aI0
aI0
aI0
aI0
aI2
aa(lp645
I1
aI0
aI0
aI0
aI1
aI1
aI0
aI1
aI0
aI0
aI0
aI0
aI2
aa(lp646
I1
aI0
aI2
aI0
aI2
aI1
aI0
aI2
aI1
aI0
aI0
aI0
aI2
aa(lp647
I1
aI0
aI1
aI0
aI1
aI1
aI0
aI1
aI0
aI0
aI0
aI0
aI2
aa(lp648
I1
aI0
aI0
aI0
aI1
aI0
aI1
aI3
aI1
aI0
aI0
aI0
aI2
aa(lp649
I1
aI0
aI1
aI0
aI1
aI1
aI1
aI3
aI0
aI0
aI0
aI0
aI2
aa(lp650
I1
aI0
aI1
aI0
aI1
aI1
aI0
aI3
aI0
aI0
aI0
aI0
aI2
aa(lp651
I1
aI0
aI0
aI0
aI1
aI1
aI0
aI3
aI0
aI0
aI0
aI0
aI2
aa(lp652
I1
aI0
aI0
aI0
aI1
aI1
aI0
aI1
aI0
aI0
aI0
aI0
aI2
aa(lp653
I1
aI0
aI0
aI0
aI4
aI1
aI0
aI3
aI0
aI0
aI0
aI0
aI2
aa(lp654
I1
aI0
aI0
aI0
aI1
aI1
aI4
aI1
aI0
aI0
aI2
aI2
aI2
aa(lp655
I1
aI0
aI1
aI0
aI1
aI1
aI0
aI1
aI0
aI0
aI0
aI0
aI2
aa(lp656
I1
aI0
aI0
aI1
aI5
aI1
aI0
aI1
aI0
aI0
aI0
aI0
aI2
aa(lp657
I1
aI0
aI1
aI0
aI1
aI1
aI0
aI2
aI1
aI0
aI0
aI0
aI2
aa(lp658
I1
aI0
aI1
aI0
aI1
aI1
aI0
aI1
aI1
aI0
aI0
aI0
aI2
aa(lp659
I1
aI0
aI1
aI0
aI2
aI1
aI1
aI3
aI0
aI0
aI2
aI0
aI2
aa(lp660
I1
aI0
aI1
aI0
aI1
aI1
aI0
aI1
aI0
aI0
aI0
aI0
aI2
aa(lp661
I1
aI0
aI0
aI0
aI4
aI1
aI0
aI3
aI0
aI0
aI0
aI0
aI2
aa(lp662
I1
aI0
aI1
aI0
aI1
aI1
aI0
aI3
aI1
aI0
aI0
aI0
aI2
aa(lp663
I1
aI0
aI1
aI0
aI1
aI1
aI0
aI2
aI1
aI0
aI0
aI0
aI2
aa(lp664
I1
aI0
aI0
aI0
aI1
aI1
aI0
aI1
aI0
aI0
aI0
aI0
aI2
aa(lp665
I1
aI0
aI1
aI0
aI1
aI1
aI0
aI1
aI0
aI0
aI0
aI0
aI2
aa(lp666
I1
aI0
aI0
aI0
aI4
aI1
aI0
aI1
aI0
aI0
aI0
aI0
aI2
aa(lp667
I1
aI0
aI0
aI0
aI1
aI1
aI0
aI3
aI0
aI0
aI2
aI0
aI2
aa(lp668
I1
aI0
aI1
aI0
aI2
aI1
aI0
aI2
aI1
aI0
aI0
aI0
aI2
aa(lp669
I1
aI0
aI1
aI0
aI1
aI1
aI1
aI3
aI0
aI0
aI0
aI0
aI2
aa(lp670
I1
aI0
aI1
aI0
aI1
aI1
aI0
aI1
aI0
aI0
aI0
aI0
aI2
aa(lp671
I1
aI0
aI4
aI0
aI1
aI1
aI0
aI3
aI0
aI0
aI2
aI0
aI2
aa(lp672
I1
aI0
aI0
aI0
aI2
aI1
aI0
aI1
aI0
aI0
aI0
aI0
aI2
aa(lp673
I1
aI0
aI0
aI0
aI1
aI1
aI0
aI1
aI0
aI0
aI2
aI0
aI2
aa(lp674
I1
aI0
aI1
aI0
aI1
aI1
aI0
aI2
aI1
aI0
aI0
aI0
aI2
aa(lp675
I1
aI0
aI1
aI0
aI1
aI1
aI0
aI1
aI1
aI0
aI0
aI0
aI2
aa(lp676
I1
aI0
aI0
aI0
aI3
aI1
aI0
aI1
aI0
aI0
aI2
aI0
aI2
aa(lp677
I1
aI0
aI0
aI0
aI4
aI1
aI0
aI2
aI1
aI0
aI0
aI0
aI2
aa(lp678
I1
aI0
aI1
aI0
aI1
aI1
aI0
aI2
aI1
aI0
aI0
aI0
aI2
aa(lp679
I1
aI0
aI1
aI0
aI1
aI1
aI0
aI1
aI1
aI0
aI2
aI0
aI2
aa(lp680
I1
aI0
aI1
aI0
aI1
aI1
aI0
aI2
aI1
aI0
aI0
aI0
aI2
aa(lp681
I1
aI0
aI1
aI0
aI2
aI0
aI0
aI2
aI1
aI0
aI0
aI2
aI2
aa(lp682
I1
aI0
aI1
aI0
aI4
aI1
aI0
aI1
aI0
aI0
aI0
aI2
aI2
aa(lp683
I1
aI0
aI1
aI0
aI1
aI1
aI0
aI1
aI0
aI0
aI1
aI0
aI2
aa(lp684
I1
aI0
aI0
aI0
aI4
aI1
aI0
aI1
aI0
aI0
aI0
aI0
aI2
aa(lp685
I1
aI0
aI0
aI0
aI4
aI1
aI0
aI1
aI0
aI0
aI2
aI0
aI2
aa(lp686
I1
aI0
aI0
aI1
aI5
aI1
aI0
aI2
aI1
aI0
aI0
aI0
aI2
aa(lp687
I1
aI0
aI1
aI0
aI1
aI0
aI0
aI2
aI1
aI0
aI0
aI0
aI2
aa(lp688
I1
aI0
aI1
aI0
aI2
aI1
aI0
aI1
aI0
aI0
aI0
aI0
aI2
aa(lp689
I1
aI0
aI1
aI0
aI1
aI1
aI0
aI1
aI1
aI0
aI0
aI2
aI2
aa(lp690
I1
aI0
aI1
aI0
aI4
aI1
aI0
aI3
aI0
aI0
aI0
aI0
aI2
aa(lp691
I1
aI0
aI1
aI0
aI1
aI1
aI0
aI3
aI1
aI0
aI0
aI0
aI2
aa(lp692
I1
aI3
aI4
aI0
aI3
aI1
aI1
aI3
aI0
aI0
aI0
aI0
aI2
aa(lp693
I1
aI0
aI1
aI0
aI1
aI1
aI0
aI1
aI0
aI0
aI0
aI0
aI2
aa(lp694
I1
aI0
aI1
aI0
aI1
aI1
aI0
aI1
aI0
aI0
aI0
aI0
aI2
aa(lp695
I1
aI0
aI1
aI0
aI1
aI1
aI0
aI1
aI0
aI0
aI0
aI0
aI2
aa(lp696
I1
aI2
aI4
aI0
aI1
aI1
aI1
aI3
aI0
aI0
aI0
aI0
aI2
aa(lp697
I1
aI3
aI4
aI0
aI1
aI0
aI0
aI1
aI0
aI0
aI0
aI0
aI2
aa(lp698
I1
aI0
aI1
aI1
aI5
aI1
aI0
aI1
aI0
aI0
aI0
aI0
aI2
aa(lp699
I1
aI0
aI1
aI0
aI1
aI1
aI0
aI1
aI1
aI0
aI0
aI2
aI2
aa(lp700
I1
aI0
aI0
aI0
aI1
aI1
aI0
aI1
aI0
aI0
aI0
aI0
aI2
aa(lp701
I1
aI0
aI1
aI0
aI1
aI1
aI0
aI1
aI1
aI0
aI0
aI0
aI2
aa(lp702
I1
aI0
aI1
aI0
aI1
aI1
aI0
aI1
aI1
aI0
aI0
aI0
aI2
aa(lp703
I1
aI0
aI1
aI0
aI1
aI1
aI0
aI1
aI1
aI0
aI0
aI0
aI2
aa(lp704
I1
aI0
aI1
aI0
aI1
aI1
aI0
aI1
aI0
aI0
aI0
aI0
aI2
aa(lp705
I1
aI0
aI1
aI0
aI4
aI1
aI0
aI1
aI0
aI0
aI0
aI0
aI2
aa(lp706
I1
aI0
aI1
aI0
aI1
aI1
aI0
aI1
aI0
aI0
aI0
aI0
aI2
aa(lp707
I1
aI0
aI0
aI1
aI5
aI1
aI0
aI1
aI0
aI0
aI0
aI0
aI2
aa(lp708
I1
aI0
aI1
aI0
aI1
aI1
aI0
aI3
aI0
aI0
aI2
aI0
aI2
aa(lp709
I1
aI0
aI1
aI0
aI1
aI1
aI0
aI1
aI1
aI0
aI0
aI0
aI2
aa(lp710
I1
aI0
aI1
aI0
aI1
aI1
aI0
aI1
aI0
aI0
aI0
aI0
aI2
aa(lp711
I1
aI2
aI4
aI0
aI2
aI1
aI0
aI3
aI0
aI0
aI0
aI0
aI2
aa(lp712
I1
aI0
aI4
aI0
aI1
aI1
aI0
aI1
aI0
aI0
aI0
aI0
aI2
aa(lp713
I1
aI0
aI1
aI0
aI1
aI1
aI1
aI3
aI0
aI0
aI0
aI2
aI2
aa(lp714
I1
aI3
aI4
aI0
aI1
aI1
aI0
aI1
aI0
aI0
aI0
aI0
aI2
aa(lp715
I1
aI0
aI1
aI0
aI1
aI1
aI0
aI3
aI0
aI0
aI0
aI0
aI2
aa(lp716
I1
aI1
aI4
aI1
aI5
aI1
aI1
aI3
aI1
aI0
aI0
aI0
aI2
aa(lp717
I1
aI0
aI1
aI0
aI1
aI1
aI0
aI1
aI0
aI0
aI2
aI0
aI2
aa(lp718
I1
aI0
aI1
aI0
aI1
aI1
aI0
aI1
aI0
aI0
aI0
aI2
aI2
aa(lp719
I1
aI0
aI0
aI0
aI1
aI1
aI0
aI3
aI0
aI0
aI0
aI0
aI2
aa(lp720
I1
aI0
aI1
aI0
aI1
aI1
aI0
aI1
aI1
aI0
aI2
aI0
aI2
aa(lp721
I1
aI0
aI1
aI0
aI1
aI1
aI0
aI2
aI1
aI0
aI0
aI0
aI2
aa(lp722
I1
aI0
aI0
aI0
aI1
aI1
aI0
aI1
aI0
aI0
aI2
aI0
aI2
aa(lp723
I1
aI4
aI4
aI0
aI1
aI0
aI3
aI3
aI1
aI0
aI0
aI0
aI2
aa(lp724
I1
aI0
aI1
aI0
aI1
aI1
aI0
aI1
aI0
aI0
aI2
aI0
aI2
aa(lp725
I1
aI0
aI1
aI0
aI1
aI1
aI0
aI1
aI1
aI0
aI2
aI0
aI2
aa(lp726
I1
aI0
aI0
aI0
aI4
aI1
aI0
aI1
aI0
aI0
aI0
aI0
aI2
aa(lp727
I1
aI0
aI1
aI0
aI1
aI1
aI0
aI2
aI1
aI0
aI0
aI0
aI2
aa(lp728
I1
aI0
aI1
aI0
aI1
aI1
aI0
aI1
aI1
aI0
aI0
aI0
aI2
aa(lp729
I1
aI0
aI1
aI0
aI1
aI1
aI0
aI1
aI0
aI0
aI0
aI0
aI2
aa(lp730
I1
aI0
aI1
aI0
aI1
aI1
aI0
aI1
aI1
aI0
aI0
aI0
aI2
aa(lp731
I1
aI0
aI1
aI0
aI1
aI1
aI0
aI1
aI0
aI0
aI0
aI0
aI2
aa(lp732
I1
aI0
aI0
aI0
aI1
aI1
aI0
aI3
aI1
aI0
aI0
aI0
aI2
aa(lp733
I1
aI0
aI1
aI0
aI1
aI1
aI0
aI1
aI0
aI0
aI2
aI0
aI2
aa(lp734
I1
aI0
aI1
aI0
aI1
aI1
aI1
aI3
aI0
aI0
aI0
aI0
aI2
aa(lp735
I1
aI0
aI0
aI0
aI1
aI0
aI0
aI3
aI1
aI0
aI2
aI2
aI2
aa(lp736
I1
aI0
aI2
aI0
aI2
aI1
aI0
aI3
aI0
aI0
aI2
aI0
aI2
aa(lp737
I1
aI0
aI1
aI0
aI1
aI1
aI0
aI2
aI1
aI0
aI0
aI0
aI2
aa(lp738
I1
aI0
aI2
aI0
aI1
aI0
aI0
aI2
aI1
aI0
aI0
aI0
aI2
aa(lp739
I1
aI0
aI1
aI0
aI1
aI1
aI0
aI1
aI1
aI0
aI0
aI0
aI2
aa(lp740
I1
aI0
aI1
aI0
aI1
aI1
aI0
aI2
aI1
aI0
aI0
aI0
aI2
aa(lp741
I1
aI0
aI0
aI0
aI3
aI1
aI0
aI1
aI1
aI0
aI0
aI0
aI2
aa(lp742
I1
aI0
aI1
aI0
aI1
aI1
aI0
aI3
aI0
aI0
aI0
aI0
aI2
aa(lp743
I1
aI0
aI0
aI0
aI1
aI1
aI0
aI1
aI1
aI0
aI2
aI0
aI2
aa(lp744
I1
aI0
aI0
aI0
aI1
aI1
aI0
aI1
aI0
aI0
aI0
aI0
aI2
aa(lp745
I1
aI0
aI1
aI0
aI1
aI1
aI1
aI3
aI1
aI0
aI0
aI0
aI2
aa(lp746
I1
aI0
aI4
aI0
aI1
aI1
aI0
aI1
aI0
aI0
aI0
aI0
aI2
aa(lp747
I1
aI0
aI1
aI0
aI1
aI1
aI0
aI3
aI0
aI0
aI2
aI0
aI2
aa(lp748
I1
aI0
aI1
aI0
aI4
aI1
aI0
aI1
aI0
aI0
aI0
aI0
aI2
aa(lp749
I1
aI0
aI1
aI0
aI1
aI1
aI3
aI3
aI1
aI0
aI0
aI0
aI2
aa(lp750
I1
aI0
aI1
aI0
aI3
aI1
aI0
aI1
aI0
aI0
aI0
aI0
aI2
aa(lp751
I1
aI0
aI1
aI0
aI1
aI1
aI0
aI3
aI0
aI0
aI2
aI0
aI2
aa(lp752
I1
aI0
aI0
aI1
aI5
aI1
aI0
aI3
aI0
aI0
aI0
aI0
aI2
aa(lp753
I1
aI2
aI4
aI0
aI1
aI1
aI0
aI1
aI0
aI0
aI0
aI0
aI2
aa(lp754
I1
aI0
aI1
aI0
aI1
aI1
aI0
aI1
aI0
aI0
aI0
aI0
aI2
aa(lp755
I1
aI0
aI1
aI0
aI1
aI1
aI1
aI3
aI0
aI0
aI0
aI0
aI2
aa(lp756
I1
aI0
aI1
aI0
aI1
aI1
aI0
aI1
aI0
aI0
aI0
aI0
aI2
aa(lp757
I1
aI0
aI1
aI0
aI1
aI1
aI0
aI1
aI0
aI0
aI0
aI0
aI2
aa(lp758
I1
aI0
aI4
aI0
aI4
aI1
aI0
aI1
aI0
aI0
aI2
aI0
aI2
aa(lp759
I1
aI0
aI1
aI0
aI1
aI0
aI0
aI3
aI0
aI0
aI0
aI0
aI2
aa(lp760
I1
aI2
aI4
aI0
aI1
aI1
aI0
aI1
aI0
aI0
aI0
aI2
aI2
aa(lp761
I1
aI0
aI1
aI0
aI1
aI1
aI0
aI1
aI1
aI0
aI2
aI0
aI2
aa(lp762
I1
aI0
aI1
aI0
aI1
aI1
aI1
aI3
aI0
aI0
aI0
aI2
aI2
aa(lp763
I1
aI0
aI2
aI0
aI1
aI1
aI0
aI2
aI1
aI0
aI0
aI0
aI2
aa(lp764
I1
aI0
aI1
aI0
aI1
aI0
aI0
aI1
aI0
aI0
aI2
aI0
aI2
aa(lp765
I1
aI0
aI1
aI0
aI1
aI1
aI0
aI1
aI0
aI0
aI0
aI0
aI2
aa(lp766
I0
aI0
aI0
aI1
aI1
aI1
aI3
aI0
aI0
aI0
aI0
aI2
aI2
aa(lp767
I0
aI0
aI0
aI1
aI1
aI0
aI2
aI1
aI0
aI0
aI0
aI0
aI2
aa(lp768
I0
aI1
aI0
aI1
aI1
aI0
aI1
aI1
aI0
aI0
aI0
aI0
aI2
aa(lp769
I2
aI4
aI0
aI3
aI1
aI0
aI1
aI0
aI0
aI0
aI0
aI0
aI2
aa(lp770
I0
aI1
aI0
aI1
aI1
aI0
aI2
aI0
aI0
aI0
aI0
aI0
aI2
aa(lp771
I0
aI0
aI0
aI0
aI1
aI0
aI2
aI1
aI0
aI0
aI0
aI2
aI2
aa(lp772
I0
aI1
aI0
aI1
aI1
aI1
aI3
aI1
aI0
aI0
aI2
aI1
aI2
aa(lp773
I0
aI0
aI0
aI4
aI0
aI0
aI1
aI0
aI0
aI2
aI0
aI0
aI2
aa(lp774
I3
aI4
aI1
aI5
aI1
aI0
aI3
aI0
aI0
aI0
aI0
aI0
aI2
aa(lp775
I0
aI1
aI0
aI4
aI1
aI0
aI1
aI0
aI0
aI0
aI0
aI0
aI2
aa(lp776
I0
aI0
aI0
aI1
aI1
aI0
aI1
aI1
aI0
aI0
aI0
aI2
aI2
aa(lp777
I0
aI1
aI0
aI1
aI0
aI0
aI3
aI0
aI0
aI0
aI0
aI0
aI2
aa(lp778
I3
aI4
aI0
aI1
aI1
aI0
aI1
aI0
aI0
aI0
aI0
aI0
aI2
aa(lp779
I0
aI2
aI0
aI1
aI1
aI0
aI1
aI0
aI0
aI1
aI0
aI0
aI2
aa(lp780
I0
aI1
aI0
aI1
aI1
aI0
aI3
aI0
aI0
aI0
aI0
aI0
aI2
aa(lp781
I0
aI1
aI0
aI1
aI1
aI3
aI3
aI1
aI0
aI0
aI0
aI0
aI2
aa(lp782
I0
aI1
aI0
aI1
aI1
aI1
aI3
aI1
aI0
aI0
aI0
aI0
aI2
aa(lp783
I0
aI1
aI0
aI1
aI1
aI0
aI3
aI0
aI0
aI0
aI0
aI0
aI2
aa(lp784
I0
aI1
aI0
aI1
aI1
aI0
aI1
aI0
aI0
aI0
aI0
aI0
aI2
aa(lp785
I0
aI0
aI0
aI1
aI1
aI0
aI1
aI0
aI0
aI0
aI0
aI2
aI2
aa(lp786
I0
aI0
aI0
aI1
aI1
aI0
aI1
aI0
aI0
aI0
aI0
aI2
aI2
aa(lp787
I0
aI2
aI0
aI1
aI1
aI0
aI1
aI0
aI0
aI0
aI0
aI0
aI2
aa(lp788
I0
aI0
aI0
aI1
aI1
aI1
aI3
aI3
aI0
aI0
aI0
aI0
aI2
aa(lp789
I1
aI0
aI1
aI0
aI1
aI1
aI0
aI1
aI0
aI0
aI0
aI0
aI2
aa(lp790
I1
aI3
aI4
aI0
aI4
aI1
aI0
aI1
aI0
aI0
aI0
aI0
aI2
aa(lp791
I1
aI0
aI1
aI0
aI4
aI1
aI0
aI1
aI1
aI0
aI0
aI0
aI2
aa(lp792
I1
aI2
aI4
aI1
aI5
aI1
aI0
aI1
aI0
aI0
aI0
aI0
aI2
aa(lp793
I1
aI0
aI1
aI0
aI1
aI1
aI0
aI1
aI0
aI0
aI2
aI0
aI2
aa(lp794
I1
aI0
aI1
aI0
aI1
aI1
aI0
aI1
aI1
aI0
aI0
aI0
aI2
aa(lp795
I1
aI0
aI2
aI0
aI1
aI1
aI0
aI3
aI0
aI0
aI0
aI0
aI2
aa(lp796
I1
aI0
aI1
aI0
aI1
aI1
aI1
aI3
aI1
aI0
aI0
aI0
aI2
aa(lp797
I1
aI0
aI2
aI0
aI1
aI1
aI0
aI2
aI1
aI0
aI0
aI0
aI2
aa(lp798
I1
aI0
aI2
aI0
aI1
aI1
aI0
aI2
aI1
aI0
aI2
aI0
aI2
aa(lp799
I1
aI0
aI0
aI0
aI4
aI1
aI0
aI3
aI0
aI0
aI0
aI0
aI2
aa(lp800
I1
aI0
aI2
aI0
aI1
aI1
aI0
aI1
aI1
aI0
aI2
aI2
aI2
aa(lp801
I1
aI0
aI1
aI0
aI1
aI1
aI0
aI1
aI0
aI0
aI2
aI0
aI2
aa(lp802
I1
aI0
aI1
aI0
aI1
aI1
aI0
aI1
aI0
aI0
aI0
aI0
aI2
aa(lp803
I1
aI0
aI1
aI0
aI1
aI1
aI0
aI1
aI0
aI0
aI0
aI0
aI2
aa(lp804
I1
aI0
aI1
aI0
aI1
aI1
aI0
aI1
aI0
aI0
aI0
aI0
aI2
aa(lp805
I1
aI0
aI1
aI0
aI1
aI1
aI0
aI3
aI0
aI0
aI0
aI0
aI2
aa(lp806
I1
aI1
aI4
aI0
aI1
aI1
aI1
aI3
aI1
aI0
aI0
aI0
aI2
aa(lp807
I1
aI0
aI0
aI0
aI1
aI1
aI0
aI1
aI0
aI0
aI0
aI0
aI2
aa(lp808
I1
aI0
aI0
aI0
aI4
aI1
aI0
aI3
aI0
aI0
aI0
aI0
aI2
aa(lp809
I1
aI0
aI1
aI0
aI1
aI1
aI0
aI1
aI0
aI0
aI0
aI0
aI2
aa(lp810
I1
aI0
aI1
aI0
aI1
aI1
aI1
aI3
aI0
aI0
aI2
aI0
aI2
aa(lp811
I1
aI0
aI1
aI1
aI5
aI1
aI0
aI2
aI1
aI0
aI0
aI0
aI2
aa(lp812
I1
aI0
aI0
aI0
aI1
aI1
aI0
aI1
aI1
aI0
aI0
aI0
aI2
aa(lp813
I1
aI0
aI0
aI0
aI1
aI0
aI0
aI3
aI0
aI0
aI0
aI0
aI2
aa(lp814
I1
aI0
aI2
aI0
aI1
aI1
aI0
aI1
aI0
aI0
aI0
aI0
aI2
aa(lp815
I1
aI0
aI1
aI0
aI4
aI1
aI1
aI3
aI0
aI0
aI0
aI0
aI2
aa(lp816
I1
aI0
aI4
aI0
aI4
aI0
aI0
aI3
aI0
aI0
aI0
aI0
aI2
aa(lp817
I1
aI3
aI4
aI0
aI1
aI0
aI3
aI3
aI1
aI0
aI0
aI0
aI2
aa(lp818
I1
aI0
aI4
aI0
aI1
aI1
aI0
aI1
aI0
aI0
aI0
aI0
aI2
aa(lp819
I1
aI0
aI0
aI1
aI5
aI1
aI0
aI1
aI0
aI0
aI0
aI0
aI2
aa(lp820
I1
aI3
aI4
aI0
aI1
aI1
aI0
aI1
aI0
aI0
aI0
aI0
aI2
aa(lp821
I1
aI0
aI2
aI0
aI1
aI1
aI0
aI3
aI0
aI0
aI2
aI0
aI2
aa(lp822
I1
aI0
aI0
aI0
aI0
aI1
aI0
aI3
aI0
aI0
aI0
aI0
aI2
aa(lp823
I1
aI0
aI1
aI0
aI1
aI1
aI1
aI3
aI0
aI0
aI0
aI0
aI2
aa(lp824
I1
aI0
aI1
aI0
aI1
aI1
aI0
aI1
aI0
aI0
aI2
aI0
aI2
aa(lp825
I1
aI0
aI1
aI0
aI1
aI1
aI0
aI2
aI1
aI0
aI0
aI0
aI2
aa(lp826
I1
aI3
aI4
aI0
aI1
aI1
aI1
aI3
aI0
aI0
aI0
aI0
aI2
aa(lp827
I1
aI0
aI0
aI0
aI1
aI1
aI0
aI1
aI0
aI0
aI0
aI0
aI2
aa(lp828
I1
aI0
aI0
aI0
aI1
aI1
aI0
aI1
aI1
aI0
aI2
aI0
aI2
aa(lp829
I0
aI0
aI0
aI1
aI1
aI0
aI1
aI0
aI0
aI0
aI0
aI0
aI2
aa(lp830
I0
aI2
aI0
aI1
aI1
aI0
aI1
aI1
aI0
aI0
aI0
aI0
aI2
aa(lp831
I0
aI1
aI0
aI1
aI1
aI0
aI1
aI1
aI0
aI0
aI0
aI0
aI2
aa(lp832
I0
aI0
aI0
aI1
aI1
aI0
aI2
aI1
aI0
aI0
aI0
aI0
aI2
aa(lp833
I2
aI4
aI0
aI4
aI1
aI0
aI1
aI0
aI0
aI0
aI0
aI0
aI2
aa(lp834
I0
aI1
aI0
aI1
aI1
aI0
aI1
aI1
aI0
aI0
aI2
aI2
aI2
aa(lp835
I1
aI2
aI0
aI1
aI1
aI0
aI2
aI1
aI0
aI0
aI0
aI2
aI2
aa(lp836
I0
aI1
aI0
aI1
aI1
aI0
aI1
aI1
aI0
aI0
aI0
aI0
aI2
aa(lp837
I0
aI0
aI0
aI1
aI1
aI0
aI2
aI1
aI0
aI0
aI0
aI0
aI2
aa(lp838
I0
aI1
aI1
aI5
aI1
aI0
aI1
aI1
aI0
aI0
aI0
aI0
aI2
aa(lp839
I0
aI1
aI0
aI1
aI1
aI0
aI1
aI0
aI0
aI0
aI0
aI0
aI2
aa(lp840
I0
aI1
aI0
aI1
aI1
aI0
aI1
aI0
aI0
aI0
aI2
aI2
aI2
aa(lp841
I0
aI0
aI0
aI1
aI1
aI0
aI3
aI0
aI0
aI0
aI0
aI2
aI2
aa(lp842
I0
aI1
aI0
aI3
aI1
aI0
aI1
aI1
aI0
aI0
aI1
aI2
aI2
aa(lp843
I0
aI0
aI0
aI1
aI1
aI0
aI0
aI0
aI0
aI0
aI0
aI0
aI2
aa(lp844
I0
aI2
aI0
aI1
aI1
aI0
aI3
aI0
aI0
aI0
aI0
aI0
aI2
aa(lp845
I0
aI0
aI0
aI1
aI1
aI0
aI1
aI0
aI0
aI0
aI2
aI2
aI2
aa(lp846
I0
aI0
aI0
aI4
aI1
aI0
aI1
aI1
aI0
aI0
aI0
aI0
aI2
aa(lp847
I0
aI1
aI0
aI1
aI1
aI0
aI1
aI1
aI0
aI0
aI0
aI2
aI2
aa(lp848
I0
aI0
aI0
aI1
aI1
aI0
aI0
aI1
aI0
aI0
aI0
aI0
aI2
aa(lp849
I0
aI1
aI0
aI1
aI1
aI0
aI3
aI0
aI0
aI0
aI0
aI2
aI2
aa(lp850
I0
aI1
aI0
aI1
aI1
aI0
aI1
aI1
aI0
aI0
aI0
aI0
aI2
aa(lp851
I0
aI0
aI0
aI1
aI1
aI0
aI1
aI0
aI0
aI0
aI0
aI0
aI2
aa(lp852
I1
aI0
aI2
aI0
aI1
aI1
aI0
aI2
aI1
aI0
aI0
aI0
aI2
aa(lp853
I1
aI0
aI0
aI0
aI1
aI1
aI0
aI3
aI1
aI0
aI0
aI0
aI2
aa(lp854
I1
aI0
aI0
aI0
aI1
aI1
aI1
aI3
aI0
aI0
aI0
aI0
aI2
aa(lp855
I1
aI2
aI4
aI1
aI5
aI1
aI0
aI3
aI0
aI0
aI0
aI0
aI2
aa(lp856
I1
aI0
aI0
aI0
aI1
aI1
aI0
aI1
aI0
aI0
aI0
aI0
aI2
aa(lp857
I1
aI0
aI1
aI0
aI1
aI1
aI0
aI1
aI0
aI0
aI0
aI0
aI2
aa(lp858
I1
aI0
aI1
aI0
aI1
aI1
aI0
aI1
aI0
aI0
aI0
aI0
aI2
aa(lp859
I1
aI0
aI1
aI0
aI4
aI0
aI0
aI1
aI1
aI0
aI0
aI0
aI2
aa(lp860
I1
aI0
aI4
aI0
aI4
aI1
aI0
aI3
aI0
aI0
aI0
aI0
aI2
aa(lp861
I1
aI0
aI0
aI0
aI0
aI1
aI0
aI1
aI0
aI0
aI0
aI0
aI2
aa(lp862
I1
aI0
aI1
aI0
aI1
aI1
aI0
aI1
aI1
aI0
aI0
aI0
aI2
aa(lp863
I1
aI0
aI0
aI0
aI1
aI1
aI0
aI1
aI0
aI0
aI0
aI0
aI2
aa(lp864
I1
aI0
aI1
aI0
aI1
aI1
aI1
aI3
aI0
aI0
aI2
aI0
aI2
aa(lp865
I1
aI0
aI0
aI0
aI1
aI1
aI0
aI1
aI0
aI0
aI0
aI0
aI2
aa(lp866
I1
aI0
aI1
aI0
aI1
aI1
aI0
aI1
aI1
aI0
aI0
aI0
aI2
aa(lp867
I1
aI0
aI1
aI0
aI2
aI1
aI0
aI2
aI1
aI0
aI0
aI0
aI2
aa(lp868
I1
aI0
aI1
aI0
aI1
aI1
aI0
aI3
aI0
aI0
aI0
aI0
aI2
aa(lp869
I1
aI0
aI1
aI0
aI4
aI1
aI0
aI1
aI1
aI0
aI0
aI0
aI2
aa(lp870
I1
aI0
aI1
aI0
aI4
aI1
aI0
aI1
aI0
aI0
aI0
aI0
aI2
aa(lp871
I1
aI0
aI0
aI1
aI5
aI1
aI0
aI3
aI0
aI0
aI0
aI0
aI2
aa(lp872
I1
aI0
aI0
aI0
aI1
aI1
aI0
aI3
aI0
aI0
aI0
aI0
aI2
aa(lp873
I1
aI0
aI1
aI0
aI2
aI1
aI1
aI3
aI0
aI0
aI0
aI0
aI2
aa(lp874
I1
aI0
aI0
aI0
aI1
aI0
aI0
aI1
aI0
aI0
aI2
aI0
aI2
aa(lp875
I1
aI0
aI0
aI0
aI1
aI1
aI0
aI1
aI0
aI0
aI0
aI0
aI2
aa(lp876
I1
aI0
aI0
aI0
aI1
aI0
aI0
aI2
aI1
aI0
aI0
aI0
aI2
aa(lp877
I1
aI0
aI1
aI0
aI1
aI1
aI0
aI1
aI0
aI0
aI0
aI0
aI2
aa(lp878
I1
aI0
aI0
aI0
aI1
aI1
aI0
aI3
aI1
aI0
aI0
aI0
aI2
aa(lp879
I1
aI0
aI1
aI0
aI1
aI1
aI0
aI1
aI1
aI0
aI0
aI0
aI2
aa(lp880
I1
aI0
aI0
aI0
aI1
aI1
aI0
aI3
aI1
aI0
aI0
aI0
aI2
aa(lp881
I1
aI0
aI2
aI0
aI1
aI1
aI0
aI2
aI1
aI0
aI0
aI2
aI2
aa(lp882
I1
aI0
aI2
aI0
aI4
aI1
aI0
aI1
aI1
aI0
aI0
aI0
aI2
aa(lp883
I1
aI0
aI0
aI0
aI3
aI1
aI0
aI3
aI0
aI0
aI0
aI0
aI2
aa(lp884
I1
aI2
aI4
aI0
aI0
aI1
aI0
aI3
aI1
aI0
aI0
aI0
aI2
aa(lp885
I1
aI0
aI0
aI0
aI1
aI1
aI0
aI1
aI0
aI0
aI0
aI0
aI2
aa(lp886
I1
aI0
aI0
aI0
aI1
aI1
aI0
aI1
aI0
aI0
aI0
aI0
aI2
aa(lp887
I1
aI0
aI1
aI0
aI2
aI1
aI0
aI2
aI1
aI0
aI0
aI0
aI2
aa(lp888
I1
aI2
aI4
aI0
aI1
aI1
aI0
aI3
aI0
aI0
aI0
aI0
aI2
aa(lp889
I1
aI0
aI0
aI0
aI4
aI1
aI0
aI1
aI1
aI0
aI0
aI0
aI2
aa(lp890
I1
aI0
aI1
aI0
aI4
aI1
aI0
aI3
aI0
aI0
aI0
aI2
aI2
aa(lp891
I1
aI0
aI1
aI0
aI1
aI1
aI1
aI3
aI0
aI0
aI0
aI0
aI2
aa(lp892
I1
aI0
aI0
aI0
aI1
aI1
aI0
aI1
aI1
aI0
aI0
aI0
aI2
aa(lp893
I1
aI0
aI1
aI0
aI2
aI1
aI0
aI1
aI0
aI0
aI0
aI0
aI2
aa(lp894
I1
aI0
aI1
aI0
aI1
aI1
aI0
aI3
aI1
aI0
aI0
aI0
aI2
aa(lp895
I1
aI0
aI1
aI1
aI5
aI1
aI0
aI3
aI0
aI0
aI0
aI0
aI2
aa(lp896
I1
aI0
aI1
aI0
aI1
aI1
aI0
aI2
aI1
aI0
aI2
aI0
aI2
aa(lp897
I1
aI0
aI4
aI0
aI1
aI1
aI0
aI1
aI0
aI0
aI2
aI0
aI2
aa(lp898
I1
aI0
aI1
aI0
aI1
aI1
aI0
aI3
aI0
aI0
aI0
aI0
aI2
aa(lp899
I1
aI0
aI1
aI0
aI2
aI1
aI0
aI1
aI0
aI0
aI0
aI0
aI2
aa(lp900
I1
aI0
aI1
aI0
aI1
aI0
aI0
aI1
aI0
aI0
aI0
aI2
aI2
aa(lp901
I1
aI4
aI4
aI3
aI5
aI0
aI4
aI3
aI1
aI0
aI0
aI0
aI2
aa(lp902
I2
aI4
aI1
aI5
aI1
aI0
aI3
aI0
aI0
aI2
aI0
aI0
aI2
aa(lp903
I1
aI0
aI4
aI0
aI1
aI1
aI0
aI1
aI0
aI0
aI0
aI0
aI2
aa(lp904
I1
aI0
aI2
aI0
aI1
aI1
aI0
aI1
aI1
aI0
aI0
aI0
aI2
aa(lp905
I1
aI0
aI1
aI0
aI1
aI1
aI1
aI3
aI0
aI0
aI2
aI2
aI2
aa(lp906
I1
aI0
aI1
aI0
aI1
aI1
aI0
aI1
aI1
aI0
aI0
aI0
aI2
aa(lp907
I1
aI0
aI1
aI0
aI4
aI1
aI0
aI1
aI0
aI0
aI0
aI0
aI2
aa(lp908
I1
aI0
aI1
aI0
aI1
aI1
aI0
aI3
aI0
aI0
aI0
aI0
aI2
aa(lp909
I1
aI0
aI1
aI0
aI1
aI0
aI0
aI1
aI0
aI0
aI0
aI0
aI2
aa(lp910
I1
aI0
aI1
aI0
aI4
aI0
aI0
aI1
aI0
aI0
aI0
aI0
aI2
aa(lp911
I1
aI0
aI1
aI0
aI1
aI1
aI1
aI3
aI0
aI0
aI0
aI0
aI2
aa(lp912
I1
aI0
aI1
aI0
aI1
aI1
aI1
aI3
aI0
aI0
aI0
aI0
aI2
aa(lp913
I1
aI0
aI0
aI0
aI1
aI1
aI0
aI3
aI0
aI0
aI0
aI0
aI2
aa(lp914
I1
aI0
aI1
aI0
aI1
aI1
aI0
aI1
aI0
aI0
aI0
aI0
aI2
aa(lp915
I1
aI0
aI1
aI1
aI1
aI1
aI0
aI1
aI0
aI0
aI0
aI0
aI2
aa(lp916
I1
aI0
aI1
aI0
aI1
aI1
aI0
aI1
aI1
aI0
aI0
aI0
aI2
aa(lp917
I1
aI0
aI0
aI0
aI1
aI1
aI0
aI1
aI1
aI0
aI2
aI0
aI2
aa(lp918
I1
aI0
aI1
aI0
aI1
aI1
aI0
aI1
aI0
aI0
aI2
aI0
aI2
aa(lp919
I1
aI0
aI0
aI0
aI1
aI1
aI0
aI1
aI1
aI0
aI0
aI0
aI2
aa(lp920
I1
aI0
aI1
aI1
aI5
aI1
aI0
aI2
aI1
aI0
aI0
aI0
aI2
aa(lp921
I1
aI0
aI1
aI0
aI3
aI1
aI0
aI1
aI1
aI0
aI0
aI0
aI2
aa(lp922
I1
aI0
aI0
aI0
aI1
aI1
aI0
aI3
aI0
aI0
aI0
aI0
aI2
aa(lp923
I1
aI0
aI1
aI0
aI1
aI0
aI0
aI2
aI1
aI0
aI0
aI0
aI2
aa(lp924
I1
aI0
aI0
aI0
aI1
aI1
aI0
aI3
aI0
aI0
aI0
aI0
aI2
aa(lp925
I1
aI0
aI1
aI0
aI1
aI1
aI0
aI1
aI1
aI0
aI1
aI0
aI2
aa(lp926
I0
aI1
aI0
aI1
aI1
aI0
aI0
aI1
aI0
aI2
aI0
aI0
aI3
aa(lp927
I0
aI0
aI0
aI1
aI1
aI0
aI1
aI1
aI0
aI0
aI0
aI2
aI3
aa(lp928
I0
aI1
aI0
aI1
aI1
aI0
aI1
aI1
aI0
aI2
aI0
aI0
aI3
aa(lp929
I0
aI1
aI0
aI1
aI1
aI0
aI1
aI0
aI0
aI0
aI0
aI0
aI3
aa(lp930
I3
aI4
aI0
aI1
aI1
aI1
aI3
aI1
aI0
aI0
aI0
aI0
aI3
aa(lp931
I0
aI1
aI0
aI1
aI1
aI0
aI1
aI1
aI0
aI0
aI0
aI0
aI3
aa(lp932
I3
aI1
aI0
aI1
aI1
aI0
aI1
aI1
aI0
aI0
aI0
aI2
aI3
aa(lp933
I0
aI0
aI0
aI1
aI1
aI1
aI3
aI0
aI0
aI0
aI0
aI0
aI3
aa(lp934
I0
aI1
aI0
aI1
aI1
aI0
aI1
aI0
aI0
aI0
aI0
aI0
aI3
aa(lp935
I0
aI1
aI0
aI1
aI1
aI0
aI1
aI0
aI0
aI0
aI0
aI2
aI3
aa(lp936
I0
aI1
aI0
aI1
aI1
aI0
aI1
aI0
aI0
aI2
aI0
aI0
aI3
aa(lp937
I0
aI1
aI0
aI1
aI1
aI1
aI3
aI0
aI0
aI0
aI0
aI2
aI3
aa(lp938
I0
aI1
aI0
aI0
aI1
aI0
aI1
aI1
aI0
aI0
aI0
aI0
aI3
aa(lp939
I0
aI1
aI0
aI1
aI1
aI0
aI1
aI1
aI0
aI0
aI0
aI2
aI3
aa(lp940
I0
aI1
aI0
aI1
aI1
aI0
aI1
aI1
aI0
aI0
aI0
aI2
aI3
aa(lp941
I0
aI1
aI0
aI1
aI1
aI0
aI1
aI0
aI0
aI0
aI0
aI2
aI3
aa(lp942
I0
aI1
aI0
aI1
aI1
aI0
aI1
aI1
aI0
aI0
aI0
aI0
aI3
aa(lp943
I0
aI1
aI0
aI1
aI1
aI0
aI1
aI0
aI0
aI0
aI0
aI0
aI3
aa(lp944
I0
aI1
aI0
aI1
aI1
aI1
aI3
aI1
aI0
aI0
aI0
aI0
aI3
aa(lp945
I0
aI1
aI0
aI1
aI1
aI0
aI3
aI0
aI0
aI0
aI0
aI0
aI3
aa(lp946
I0
aI1
aI0
aI1
aI1
aI0
aI3
aI0
aI0
aI0
aI0
aI0
aI3
aa(lp947
I0
aI1
aI0
aI1
aI1
aI0
aI1
aI1
aI0
aI0
aI0
aI0
aI3
aa(lp948
I0
aI1
aI0
aI3
aI0
aI0
aI1
aI0
aI0
aI0
aI0
aI0
aI3
aa(lp949
I1
aI4
aI0
aI1
aI1
aI0
aI3
aI1
aI0
aI0
aI0
aI0
aI3
aa(lp950
I0
aI1
aI0
aI1
aI1
aI0
aI1
aI0
aI0
aI0
aI0
aI0
aI3
aa(lp951
I0
aI1
aI0
aI1
aI1
aI0
aI1
aI1
aI0
aI0
aI0
aI0
aI3
aa(lp952
I0
aI0
aI0
aI1
aI1
aI0
aI1
aI0
aI0
aI0
aI0
aI0
aI3
aa(lp953
I0
aI1
aI0
aI1
aI1
aI0
aI2
aI1
aI0
aI0
aI0
aI0
aI3
aa(lp954
I0
aI0
aI0
aI1
aI1
aI0
aI1
aI1
aI0
aI0
aI0
aI0
aI3
aa(lp955
I0
aI1
aI0
aI1
aI0
aI0
aI1
aI1
aI0
aI0
aI0
aI0
aI3
aa(lp956
I0
aI1
aI0
aI1
aI0
aI0
aI1
aI0
aI0
aI0
aI0
aI2
aI3
aa(lp957
I0
aI2
aI0
aI1
aI1
aI0
aI1
aI0
aI0
aI0
aI0
aI0
aI3
aa(lp958
I0
aI1
aI0
aI1
aI1
aI1
aI3
aI0
aI0
aI0
aI0
aI0
aI3
aa(lp959
I2
aI4
aI0
aI1
aI1
aI0
aI1
aI0
aI0
aI0
aI0
aI0
aI3
aa(lp960
I0
aI1
aI0
aI1
aI1
aI0
aI1
aI0
aI0
aI2
aI0
aI0
aI3
aa(lp961
I0
aI0
aI0
aI1
aI1
aI0
aI1
aI0
aI0
aI0
aI0
aI0
aI3
aa(lp962
I0
aI1
aI0
aI1
aI1
aI0
aI2
aI1
aI0
aI0
aI0
aI0
aI3
aa(lp963
I0
aI1
aI0
aI3
aI1
aI0
aI1
aI0
aI0
aI2
aI0
aI0
aI3
aa(lp964
I0
aI1
aI0
aI1
aI1
aI0
aI1
aI0
aI0
aI0
aI0
aI0
aI3
aa(lp965
I0
aI1
aI0
aI1
aI1
aI0
aI1
aI1
aI0
aI0
aI0
aI0
aI3
aa(lp966
I0
aI1
aI0
aI1
aI1
aI0
aI1
aI0
aI0
aI0
aI0
aI0
aI3
aa(lp967
I0
aI1
aI0
aI1
aI1
aI0
aI1
aI0
aI0
aI0
aI0
aI0
aI3
aa(lp968
I0
aI1
aI0
aI4
aI1
aI0
aI3
aI0
aI0
aI0
aI0
aI0
aI3
aa(lp969
I3
aI4
aI0
aI1
aI0
aI0
aI1
aI0
aI0
aI0
aI0
aI0
aI3
aa(lp970
I1
aI4
aI0
aI1
aI1
aI0
aI1
aI0
aI0
aI0
aI0
aI0
aI3
aa(lp971
I0
aI1
aI0
aI1
aI1
aI0
aI1
aI1
aI0
aI2
aI0
aI0
aI3
aa(lp972
I0
aI4
aI0
aI3
aI1
aI1
aI3
aI0
aI0
aI0
aI0
aI0
aI3
aa(lp973
I2
aI4
aI1
aI5
aI1
aI0
aI3
aI0
aI0
aI0
aI0
aI0
aI3
aa(lp974
I1
aI1
aI0
aI1
aI1
aI0
aI1
aI0
aI0
aI0
aI0
aI0
aI3
aa(lp975
I0
aI1
aI0
aI1
aI1
aI0
aI1
aI0
aI0
aI2
aI0
aI0
aI3
aa(lp976
I0
aI1
aI0
aI1
aI1
aI0
aI1
aI0
aI0
aI2
aI0
aI0
aI3
aa(lp977
I1
aI4
aI0
aI1
aI1
aI1
aI3
aI0
aI0
aI0
aI0
aI0
aI3
aa(lp978
I3
aI4
aI0
aI1
aI1
aI0
aI1
aI0
aI0
aI0
aI0
aI2
aI3
aa(lp979
I0
aI0
aI0
aI1
aI1
aI1
aI3
aI0
aI0
aI0
aI0
aI0
aI3
aa(lp980
I3
aI4
aI0
aI3
aI1
aI0
aI1
aI0
aI0
aI2
aI0
aI0
aI3
aa(lp981
I0
aI1
aI0
aI1
aI1
aI0
aI1
aI0
aI0
aI0
aI0
aI0
aI3
aa(lp982
I3
aI4
aI0
aI1
aI1
aI0
aI3
aI0
aI0
aI0
aI0
aI0
aI3
aa(lp983
I0
aI1
aI0
aI1
aI1
aI0
aI1
aI0
aI0
aI0
aI0
aI0
aI3
aa(lp984
I0
aI1
aI0
aI1
aI1
aI0
aI3
aI0
aI0
aI2
aI0
aI0
aI3
aa(lp985
I0
aI1
aI0
aI4
aI1
aI0
aI1
aI1
aI0
aI0
aI0
aI0
aI3
aa(lp986
I0
aI1
aI0
aI1
aI1
aI0
aI3
aI0
aI0
aI0
aI0
aI0
aI3
aa(lp987
I0
aI1
aI0
aI1
aI1
aI0
aI1
aI1
aI0
aI0
aI0
aI0
aI3
aa(lp988
I0
aI4
aI1
aI5
aI1
aI0
aI1
aI0
aI0
aI2
aI0
aI0
aI3
aa(lp989
I0
aI1
aI0
aI3
aI1
aI0
aI1
aI1
aI0
aI0
aI0
aI2
aI3
aa(lp990
I0
aI1
aI0
aI1
aI1
aI0
aI1
aI0
aI0
aI0
aI0
aI0
aI3
aa(lp991
I0
aI1
aI0
aI1
aI1
aI0
aI1
aI1
aI0
aI0
aI0
aI0
aI3
aa(lp992
I0
aI1
aI0
aI1
aI1
aI0
aI3
aI1
aI0
aI2
aI0
aI0
aI3
aa(lp993
I0
aI1
aI0
aI3
aI1
aI0
aI1
aI0
aI0
aI0
aI0
aI0
aI3
aa(lp994
I0
aI1
aI0
aI1
aI1
aI0
aI1
aI1
aI0
aI0
aI0
aI0
aI3
aa(lp995
I0
aI1
aI0
aI1
aI1
aI0
aI2
aI1
aI0
aI0
aI0
aI0
aI3
aa(lp996
I2
aI4
aI1
aI5
aI1
aI1
aI3
aI1
aI0
aI0
aI0
aI0
aI3
aa(lp997
I0
aI1
aI0
aI1
aI1
aI0
aI1
aI0
aI0
aI2
aI0
aI0
aI3
aa(lp998
I0
aI1
aI0
aI3
aI1
aI0
aI1
aI0
aI0
aI0
aI0
aI0
aI3
aa(lp999
I0
aI4
aI1
aI5
aI1
aI0
aI3
aI0
aI0
aI2
aI0
aI0
aI3
aa(lp1000
I0
aI1
aI0
aI3
aI1
aI0
aI3
aI0
aI0
aI0
aI0
aI0
aI3
aa(lp1001
I0
aI1
aI0
aI1
aI1
aI0
aI1
aI1
aI0
aI2
aI0
aI0
aI3
aa(lp1002
I0
aI1
aI0
aI1
aI1
aI0
aI1
aI0
aI0
aI2
aI0
aI0
aI3
aa(lp1003
I0
aI1
aI0
aI1
aI1
aI0
aI1
aI1
aI0
aI2
aI0
aI0
aI3
aa(lp1004
I0
aI1
aI1
aI5
aI1
aI0
aI1
aI0
aI0
aI0
aI0
aI0
aI3
aa(lp1005
I0
aI1
aI0
aI1
aI1
aI0
aI1
aI1
aI0
aI0
aI0
aI0
aI3
aa(lp1006
I0
aI0
aI0
aI1
aI1
aI0
aI3
aI0
aI0
aI0
aI0
aI0
aI3
aa(lp1007
I0
aI1
aI0
aI1
aI1
aI0
aI1
aI0
aI0
aI2
aI0
aI0
aI3
aa(lp1008
I0
aI1
aI0
aI1
aI1
aI0
aI2
aI1
aI0
aI0
aI0
aI2
aI3
aa(lp1009
I0
aI1
aI0
aI4
aI1
aI0
aI1
aI0
aI0
aI2
aI0
aI0
aI3
aa(lp1010
I0
aI1
aI0
aI1
aI1
aI0
aI1
aI0
aI0
aI0
aI0
aI2
aI3
aa(lp1011
I0
aI1
aI0
aI3
aI1
aI3
aI3
aI1
aI0
aI0
aI0
aI0
aI3
aa(lp1012
I0
aI1
aI0
aI1
aI1
aI0
aI1
aI0
aI0
aI0
aI0
aI0
aI3
aa(lp1013
I0
aI0
aI0
aI4
aI0
aI0
aI3
aI0
aI0
aI0
aI0
aI0
aI3
aa(lp1014
I0
aI0
aI0
aI3
aI1
aI4
aI1
aI0
aI0
aI0
aI0
aI2
aI3
aa(lp1015
I0
aI4
aI0
aI4
aI1
aI0
aI3
aI0
aI0
aI0
aI0
aI0
aI3
aa(lp1016
I0
aI1
aI0
aI1
aI1
aI0
aI3
aI1
aI0
aI0
aI0
aI0
aI3
aa(lp1017
I2
aI4
aI1
aI5
aI1
aI0
aI3
aI0
aI0
aI2
aI0
aI0
aI3
aa(lp1018
I0
aI0
aI0
aI1
aI1
aI4
aI1
aI0
aI0
aI0
aI2
aI2
aI3
aa(lp1019
I0
aI1
aI0
aI1
aI1
aI1
aI3
aI0
aI0
aI0
aI0
aI2
aI3
aa(lp1020
I0
aI1
aI1
aI5
aI1
aI0
aI3
aI0
aI0
aI0
aI0
aI2
aI3
aa(lp1021
I0
aI1
aI0
aI1
aI1
aI0
aI3
aI0
aI0
aI0
aI0
aI0
aI3
aa(lp1022
I0
aI1
aI0
aI1
aI1
aI0
aI1
aI0
aI0
aI2
aI0
aI0
aI3
aa(lp1023
I0
aI1
aI0
aI1
aI1
aI0
aI1
aI1
aI0
aI0
aI0
aI0
aI3
aa(lp1024
I0
aI1
aI0
aI3
aI0
aI1
aI3
aI0
aI0
aI0
aI0
aI0
aI3
aa(lp1025
I0
aI1
aI0
aI1
aI0
aI0
aI3
aI0
aI0
aI2
aI0
aI0
aI3
aa(lp1026
I0
aI1
aI0
aI1
aI1
aI0
aI1
aI1
aI0
aI0
aI0
aI0
aI3
aa(lp1027
I0
aI2
aI0
aI1
aI1
aI0
aI1
aI0
aI0
aI0
aI0
aI0
aI3
aa(lp1028
I3
aI4
aI0
aI1
aI1
aI0
aI1
aI0
aI0
aI0
aI0
aI0
aI3
aa(lp1029
I0
aI1
aI0
aI1
aI1
aI0
aI1
aI1
aI0
aI0
aI0
aI1
aI3
aa(lp1030
I0
aI1
aI0
aI1
aI1
aI0
aI1
aI1
aI0
aI0
aI0
aI2
aI3
aa(lp1031
I0
aI1
aI0
aI1
aI1
aI0
aI1
aI0
aI0
aI0
aI0
aI0
aI3
aa(lp1032
I0
aI2
aI0
aI2
aI1
aI3
aI3
aI1
aI0
aI0
aI2
aI2
aI3
aa(lp1033
I0
aI1
aI0
aI1
aI1
aI0
aI1
aI1
aI0
aI0
aI0
aI0
aI3
aa(lp1034
I0
aI1
aI0
aI1
aI1
aI0
aI2
aI1
aI0
aI0
aI0
aI0
aI3
aa(lp1035
I0
aI1
aI0
aI1
aI1
aI0
aI1
aI1
aI0
aI0
aI0
aI0
aI3
aa(lp1036
I0
aI1
aI0
aI1
aI1
aI0
aI1
aI0
aI0
aI0
aI0
aI0
aI3
aa(lp1037
I0
aI1
aI0
aI1
aI1
aI0
aI1
aI0
aI0
aI0
aI0
aI0
aI3
aa(lp1038
I0
aI1
aI0
aI1
aI1
aI0
aI3
aI1
aI0
aI0
aI0
aI1
aI3
aa(lp1039
I0
aI4
aI0
aI1
aI1
aI0
aI1
aI0
aI0
aI0
aI0
aI0
aI3
aa(lp1040
I0
aI1
aI0
aI2
aI1
aI0
aI1
aI1
aI0
aI0
aI0
aI0
aI3
aa(lp1041
I0
aI1
aI0
aI2
aI1
aI0
aI3
aI0
aI0
aI2
aI0
aI0
aI3
aa(lp1042
I0
aI1
aI0
aI1
aI1
aI0
aI1
aI1
aI0
aI2
aI2
aI0
aI3
aa(lp1043
I0
aI1
aI0
aI1
aI1
aI0
aI1
aI1
aI0
aI0
aI0
aI0
aI3
aa(lp1044
I0
aI0
aI0
aI1
aI1
aI0
aI3
aI1
aI0
aI0
aI0
aI0
aI3
aa(lp1045
I0
aI1
aI0
aI1
aI1
aI0
aI1
aI1
aI0
aI0
aI0
aI0
aI3
aa(lp1046
I0
aI1
aI0
aI1
aI1
aI0
aI1
aI1
aI0
aI0
aI0
aI0
aI3
aa(lp1047
I0
aI1
aI0
aI1
aI1
aI0
aI1
aI1
aI0
aI0
aI0
aI0
aI3
aa(lp1048
I0
aI1
aI0
aI3
aI1
aI0
aI1
aI1
aI0
aI2
aI0
aI0
aI3
aa(lp1049
I0
aI1
aI0
aI1
aI1
aI0
aI1
aI1
aI0
aI0
aI0
aI0
aI3
aa(lp1050
I0
aI1
aI0
aI1
aI1
aI0
aI1
aI0
aI0
aI0
aI0
aI0
aI3
aa(lp1051
I0
aI1
aI0
aI1
aI1
aI0
aI3
aI0
aI0
aI0
aI0
aI2
aI3
aa(lp1052
I0
aI0
aI0
aI1
aI0
aI0
aI1
aI1
aI0
aI0
aI0
aI0
aI3
aa(lp1053
I0
aI1
aI0
aI3
aI0
aI0
aI1
aI0
aI0
aI2
aI0
aI0
aI3
aa(lp1054
I0
aI1
aI0
aI1
aI1
aI0
aI1
aI1
aI0
aI0
aI0
aI0
aI3
aa(lp1055
I0
aI1
aI0
aI1
aI1
aI1
aI3
aI0
aI0
aI0
aI0
aI0
aI3
aa(lp1056
I0
aI1
aI0
aI1
aI1
aI1
aI3
aI0
aI0
aI2
aI0
aI0
aI3
aa(lp1057
I0
aI1
aI0
aI1
aI1
aI0
aI1
aI0
aI0
aI0
aI0
aI0
aI3
aa(lp1058
I0
aI1
aI0
aI1
aI1
aI0
aI1
aI0
aI0
aI0
aI0
aI0
aI3
aa(lp1059
I0
aI1
aI0
aI1
aI1
aI0
aI1
aI0
aI0
aI0
aI0
aI0
aI3
aa(lp1060
I0
aI1
aI0
aI1
aI1
aI0
aI1
aI1
aI0
aI0
aI0
aI2
aI3
aa(lp1061
I0
aI1
aI0
aI1
aI1
aI0
aI3
aI1
aI0
aI0
aI0
aI0
aI3
aa(lp1062
I0
aI1
aI0
aI1
aI1
aI0
aI1
aI1
aI0
aI0
aI0
aI0
aI3
aa(lp1063
I0
aI0
aI0
aI1
aI1
aI0
aI1
aI1
aI0
aI0
aI0
aI0
aI3
aa(lp1064
I0
aI1
aI0
aI1
aI1
aI0
aI1
aI1
aI0
aI0
aI0
aI2
aI3
aa(lp1065
I0
aI1
aI0
aI1
aI1
aI0
aI1
aI0
aI0
aI0
aI0
aI0
aI3
aa(lp1066
I0
aI1
aI0
aI1
aI1
aI0
aI3
aI1
aI0
aI0
aI0
aI0
aI3
aa(lp1067
I0
aI0
aI0
aI1
aI1
aI0
aI3
aI0
aI0
aI0
aI0
aI0
aI3
aa(lp1068
I0
aI0
aI0
aI1
aI1
aI0
aI1
aI0
aI0
aI0
aI0
aI0
aI3
aa(lp1069
I0
aI1
aI0
aI1
aI1
aI0
aI1
aI1
aI0
aI0
aI0
aI2
aI3
aa(lp1070
I2
aI0
aI0
aI1
aI1
aI2
aI3
aI1
aI0
aI1
aI0
aI0
aI3
aa(lp1071
I0
aI1
aI0
aI3
aI1
aI0
aI1
aI1
aI0
aI0
aI0
aI2
aI3
aa(lp1072
I0
aI1
aI0
aI1
aI1
aI0
aI1
aI1
aI0
aI0
aI1
aI2
aI3
aa(lp1073
I0
aI1
aI0
aI1
aI1
aI0
aI2
aI1
aI0
aI0
aI0
aI0
aI3
aa(lp1074
I0
aI0
aI0
aI1
aI1
aI0
aI1
aI1
aI0
aI0
aI0
aI0
aI3
aa(lp1075
I0
aI0
aI0
aI1
aI1
aI0
aI1
aI0
aI0
aI0
aI0
aI0
aI3
aa(lp1076
I0
aI4
aI0
aI3
aI1
aI0
aI1
aI0
aI0
aI0
aI0
aI0
aI3
aa(lp1077
I0
aI0
aI0
aI1
aI1
aI0
aI1
aI0
aI0
aI0
aI0
aI0
aI3
aa(lp1078
I0
aI1
aI0
aI1
aI1
aI1
aI3
aI0
aI0
aI0
aI0
aI0
aI3
aa(lp1079
I0
aI1
aI0
aI1
aI1
aI1
aI3
aI0
aI0
aI0
aI0
aI0
aI3
aa(lp1080
I0
aI1
aI0
aI0
aI1
aI0
aI2
aI1
aI0
aI0
aI0
aI0
aI3
aa(lp1081
I0
aI1
aI0
aI1
aI1
aI0
aI3
aI0
aI0
aI2
aI0
aI0
aI3
aa(lp1082
I0
aI0
aI0
aI1
aI1
aI0
aI2
aI1
aI0
aI0
aI0
aI2
aI3
aa(lp1083
I0
aI0
aI0
aI3
aI1
aI0
aI1
aI1
aI0
aI0
aI0
aI2
aI3
aa(lp1084
I1
aI1
aI0
aI1
aI1
aI0
aI3
aI0
aI0
aI2
aI0
aI0
aI3
aa(lp1085
I0
aI1
aI0
aI1
aI1
aI0
aI1
aI1
aI0
aI0
aI0
aI2
aI3
aa(lp1086
I0
aI1
aI0
aI1
aI1
aI0
aI1
aI1
aI0
aI0
aI0
aI0
aI3
aa(lp1087
I0
aI1
aI0
aI1
aI1
aI0
aI1
aI1
aI0
aI0
aI0
aI0
aI3
aa(lp1088
I0
aI1
aI0
aI1
aI1
aI0
aI1
aI1
aI0
aI0
aI0
aI2
aI3
aa(lp1089
I0
aI1
aI0
aI1
aI1
aI0
aI3
aI1
aI0
aI0
aI0
aI0
aI3
aa(lp1090
I0
aI1
aI0
aI1
aI1
aI0
aI2
aI1
aI0
aI0
aI0
aI0
aI3
aa(lp1091
I0
aI0
aI0
aI0
aI1
aI0
aI3
aI1
aI0
aI0
aI0
aI0
aI3
aa(lp1092
I2
aI4
aI0
aI1
aI1
aI0
aI1
aI0
aI0
aI0
aI0
aI0
aI3
aa(lp1093
I0
aI1
aI0
aI4
aI1
aI0
aI1
aI1
aI0
aI0
aI0
aI1
aI3
aa(lp1094
I0
aI1
aI0
aI1
aI1
aI0
aI1
aI1
aI0
aI0
aI0
aI2
aI3
aa(lp1095
I0
aI1
aI0
aI1
aI1
aI0
aI3
aI1
aI0
aI0
aI0
aI2
aI3
aa(lp1096
I0
aI1
aI0
aI1
aI1
aI0
aI2
aI1
aI0
aI0
aI0
aI0
aI3
aa(lp1097
I2
aI4
aI0
aI1
aI1
aI2
aI3
aI1
aI0
aI0
aI0
aI0
aI3
aa(lp1098
I0
aI1
aI0
aI1
aI1
aI0
aI1
aI0
aI0
aI0
aI0
aI0
aI3
aa(lp1099
I0
aI0
aI0
aI1
aI1
aI0
aI3
aI0
aI0
aI0
aI0
aI0
aI3
aa(lp1100
I0
aI1
aI0
aI1
aI1
aI0
aI1
aI1
aI0
aI0
aI0
aI0
aI3
aa(lp1101
I0
aI1
aI0
aI1
aI1
aI0
aI1
aI1
aI0
aI2
aI0
aI0
aI3
aa(lp1102
I0
aI0
aI0
aI1
aI1
aI0
aI3
aI1
aI0
aI0
aI0
aI0
aI3
aa(lp1103
I0
aI0
aI1
aI5
aI1
aI0
aI1
aI0
aI0
aI2
aI0
aI0
aI3
aa(lp1104
I0
aI1
aI0
aI1
aI1
aI1
aI3
aI0
aI0
aI0
aI0
aI0
aI3
aa(lp1105
I0
aI1
aI0
aI1
aI1
aI0
aI1
aI0
aI0
aI0
aI0
aI0
aI3
aa(lp1106
I0
aI1
aI0
aI1
aI1
aI0
aI1
aI1
aI0
aI0
aI0
aI0
aI3
aa(lp1107
I0
aI1
aI0
aI1
aI1
aI0
aI1
aI1
aI0
aI2
aI0
aI0
aI3
aa(lp1108
I0
aI1
aI0
aI1
aI1
aI0
aI1
aI0
aI0
aI0
aI0
aI0
aI3
aa(lp1109
I0
aI1
aI0
aI1
aI1
aI0
aI1
aI1
aI0
aI0
aI0
aI0
aI3
aa(lp1110
I0
aI0
aI0
aI1
aI1
aI0
aI3
aI0
aI0
aI0
aI0
aI0
aI3
aa(lp1111
I0
aI1
aI0
aI1
aI1
aI0
aI1
aI0
aI0
aI0
aI0
aI0
aI3
aa(lp1112
I0
aI0
aI0
aI1
aI1
aI0
aI1
aI1
aI0
aI0
aI0
aI0
aI3
aa(lp1113
I0
aI1
aI1
aI5
aI1
aI0
aI1
aI0
aI0
aI0
aI0
aI0
aI3
aa(lp1114
I0
aI1
aI0
aI1
aI1
aI0
aI1
aI0
aI0
aI2
aI0
aI0
aI3
aa(lp1115
I0
aI1
aI0
aI3
aI1
aI0
aI1
aI0
aI0
aI0
aI0
aI0
aI3
aa(lp1116
I3
aI4
aI0
aI1
aI1
aI1
aI3
aI0
aI0
aI2
aI0
aI0
aI3
aa(lp1117
I0
aI1
aI0
aI1
aI1
aI0
aI1
aI0
aI0
aI0
aI0
aI0
aI3
aa(lp1118
I0
aI1
aI0
aI4
aI0
aI0
aI2
aI1
aI0
aI0
aI0
aI0
aI3
aa(lp1119
I0
aI1
aI0
aI1
aI1
aI0
aI1
aI1
aI0
aI0
aI0
aI0
aI3
aa(lp1120
I0
aI1
aI0
aI1
aI1
aI0
aI1
aI1
aI0
aI0
aI0
aI1
aI3
aa(lp1121
I0
aI1
aI0
aI1
aI1
aI0
aI1
aI0
aI0
aI0
aI0
aI0
aI3
aa(lp1122
I0
aI0
aI0
aI1
aI1
aI0
aI1
aI1
aI0
aI0
aI0
aI0
aI3
aa(lp1123
I0
aI1
aI0
aI3
aI1
aI0
aI3
aI1
aI0
aI1
aI0
aI0
aI3
aa(lp1124
I0
aI1
aI0
aI1
aI0
aI0
aI1
aI0
aI0
aI0
aI0
aI0
aI3
aa(lp1125
I0
aI0
aI0
aI1
aI1
aI0
aI2
aI1
aI0
aI0
aI0
aI0
aI3
aa(lp1126
I0
aI1
aI0
aI1
aI1
aI0
aI1
aI1
aI0
aI0
aI0
aI0
aI3
aa(lp1127
I0
aI1
aI0
aI1
aI1
aI0
aI1
aI1
aI0
aI0
aI0
aI0
aI3
aa(lp1128
I0
aI1
aI0
aI1
aI0
aI0
aI2
aI1
aI0
aI0
aI0
aI0
aI3
aa(lp1129
I0
aI4
aI0
aI1
aI1
aI0
aI3
aI0
aI0
aI0
aI0
aI2
aI3
aa(lp1130
I0
aI1
aI0
aI1
aI1
aI0
aI3
aI1
aI0
aI2
aI0
aI0
aI3
aa(lp1131
I0
aI1
aI0
aI1
aI1
aI1
aI3
aI0
aI0
aI0
aI0
aI2
aI3
aa(lp1132
I0
aI1
aI0
aI1
aI1
aI1
aI3
aI1
aI0
aI0
aI0
aI0
aI3
aa(lp1133
I0
aI1
aI0
aI1
aI1
aI0
aI2
aI1
aI0
aI0
aI0
aI0
aI3
aa(lp1134
I0
aI1
aI0
aI1
aI0
aI0
aI2
aI1
aI0
aI0
aI0
aI0
aI3
aa(lp1135
I0
aI1
aI0
aI1
aI1
aI1
aI3
aI0
aI0
aI0
aI0
aI2
aI3
aa(lp1136
I0
aI1
aI0
aI1
aI1
aI0
aI1
aI0
aI0
aI2
aI0
aI0
aI3
aa(lp1137
I0
aI0
aI0
aI1
aI1
aI0
aI1
aI0
aI0
aI0
aI0
aI0
aI3
aa(lp1138
I0
aI1
aI0
aI1
aI1
aI0
aI1
aI1
aI0
aI0
aI0
aI0
aI3
aa(lp1139
I0
aI1
aI0
aI1
aI1
aI0
aI1
aI1
aI0
aI0
aI0
aI2
aI3
aa(lp1140
I0
aI1
aI0
aI3
aI1
aI0
aI3
aI0
aI0
aI0
aI0
aI0
aI3
aa(lp1141
I0
aI1
aI0
aI1
aI1
aI0
aI1
aI1
aI0
aI0
aI0
aI0
aI3
aa(lp1142
I0
aI1
aI0
aI1
aI1
aI0
aI1
aI1
aI0
aI2
aI0
aI0
aI3
aa(lp1143
I0
aI1
aI0
aI1
aI1
aI0
aI1
aI1
aI0
aI0
aI0
aI2
aI3
aa(lp1144
I0
aI2
aI0
aI4
aI0
aI0
aI1
aI0
aI0
aI0
aI0
aI0
aI3
aa(lp1145
I0
aI0
aI0
aI4
aI1
aI0
aI1
aI0
aI0
aI0
aI0
aI0
aI3
aa(lp1146
I0
aI1
aI0
aI1
aI1
aI0
aI1
aI0
aI0
aI0
aI0
aI2
aI3
aa(lp1147
I0
aI1
aI0
aI1
aI1
aI0
aI1
aI0
aI0
aI2
aI0
aI0
aI3
aa(lp1148
I1
aI4
aI0
aI1
aI1
aI1
aI3
aI0
aI0
aI2
aI2
aI0
aI3
aa(lp1149
I0
aI1
aI0
aI1
aI1
aI0
aI1
aI0
aI0
aI0
aI0
aI0
aI3
aa(lp1150
I0
aI1
aI0
aI1
aI1
aI0
aI1
aI0
aI0
aI0
aI2
aI2
aI3
aa(lp1151
I0
aI0
aI0
aI1
aI1
aI0
aI2
aI1
aI0
aI0
aI2
aI2
aI3
aa(lp1152
I0
aI1
aI0
aI1
aI1
aI0
aI2
aI1
aI0
aI0
aI2
aI2
aI3
aa(lp1153
I0
aI0
aI0
aI1
aI1
aI0
aI3
aI0
aI0
aI2
aI0
aI0
aI3
aa(lp1154
I0
aI1
aI0
aI1
aI1
aI0
aI1
aI0
aI0
aI0
aI0
aI0
aI3
aa(lp1155
I0
aI1
aI0
aI4
aI1
aI0
aI3
aI0
aI0
aI0
aI0
aI0
aI3
aa(lp1156
I0
aI0
aI0
aI1
aI1
aI1
aI3
aI1
aI0
aI0
aI0
aI2
aI3
aa(lp1157
I0
aI4
aI0
aI1
aI1
aI0
aI3
aI0
aI0
aI0
aI0
aI0
aI3
aa(lp1158
I0
aI1
aI0
aI1
aI1
aI0
aI1
aI1
aI0
aI2
aI0
aI0
aI3
aa(lp1159
I0
aI1
aI0
aI1
aI1
aI1
aI3
aI1
aI0
aI0
aI0
aI2
aI3
aa(lp1160
I0
aI0
aI0
aI0
aI1
aI0
aI1
aI0
aI0
aI2
aI0
aI0
aI3
aa(lp1161
I1
aI4
aI0
aI1
aI1
aI1
aI3
aI0
aI0
aI0
aI0
aI2
aI3
aa(lp1162
I0
aI1
aI0
aI1
aI1
aI0
aI1
aI1
aI0
aI0
aI0
aI2
aI3
aa(lp1163
I1
aI4
aI0
aI1
aI1
aI0
aI3
aI0
aI0
aI0
aI0
aI0
aI3
aa(lp1164
I0
aI1
aI0
aI1
aI1
aI0
aI1
aI0
aI0
aI0
aI0
aI2
aI3
aa(lp1165
I0
aI1
aI0
aI1
aI1
aI0
aI1
aI1
aI0
aI2
aI0
aI0
aI3
aa(lp1166
I0
aI1
aI0
aI1
aI1
aI0
aI3
aI0
aI0
aI2
aI0
aI0
aI3
aa(lp1167
I0
aI1
aI0
aI1
aI1
aI0
aI1
aI0
aI0
aI2
aI0
aI0
aI3
aa(lp1168
I0
aI2
aI0
aI1
aI1
aI0
aI1
aI0
aI0
aI0
aI0
aI0
aI3
aa(lp1169
I0
aI0
aI0
aI1
aI1
aI0
aI1
aI0
aI0
aI0
aI0
aI0
aI3
aa(lp1170
I0
aI2
aI0
aI1
aI1
aI0
aI3
aI0
aI0
aI2
aI0
aI0
aI3
aa(lp1171
I0
aI1
aI0
aI1
aI1
aI0
aI1
aI0
aI0
aI2
aI0
aI0
aI3
aa(lp1172
I1
aI4
aI0
aI4
aI1
aI0
aI3
aI0
aI0
aI2
aI0
aI0
aI3
aa(lp1173
I0
aI0
aI0
aI4
aI1
aI0
aI3
aI0
aI0
aI0
aI0
aI0
aI3
aa(lp1174
I0
aI1
aI0
aI1
aI1
aI0
aI3
aI0
aI0
aI0
aI0
aI0
aI3
aa(lp1175
I0
aI1
aI0
aI1
aI1
aI0
aI1
aI1
aI0
aI2
aI0
aI0
aI3
aa(lp1176
I0
aI1
aI0
aI1
aI1
aI0
aI1
aI0
aI0
aI0
aI0
aI0
aI3
aa(lp1177
I0
aI0
aI1
aI5
aI1
aI1
aI3
aI0
aI0
aI0
aI0
aI0
aI3
aa(lp1178
I0
aI2
aI0
aI1
aI1
aI0
aI3
aI0
aI0
aI2
aI0
aI0
aI3
aa(lp1179
I0
aI1
aI0
aI1
aI1
aI0
aI1
aI0
aI0
aI0
aI0
aI0
aI3
aa(lp1180
I0
aI1
aI0
aI1
aI1
aI0
aI1
aI0
aI0
aI2
aI0
aI0
aI3
aa(lp1181
I0
aI4
aI0
aI1
aI1
aI0
aI1
aI0
aI0
aI0
aI0
aI0
aI3
aa(lp1182
I2
aI4
aI0
aI1
aI1
aI0
aI0
aI0
aI0
aI2
aI2
aI0
aI3
aa(lp1183
I0
aI1
aI0
aI1
aI1
aI0
aI1
aI1
aI0
aI0
aI2
aI2
aI3
aa(lp1184
I0
aI1
aI1
aI5
aI1
aI0
aI1
aI1
aI0
aI0
aI0
aI0
aI3
aa(lp1185
I0
aI1
aI0
aI1
aI1
aI0
aI1
aI0
aI0
aI1
aI0
aI0
aI3
aa(lp1186
I0
aI1
aI0
aI1
aI1
aI0
aI1
aI1
aI0
aI0
aI0
aI0
aI3
aa(lp1187
I2
aI4
aI0
aI3
aI1
aI1
aI3
aI0
aI0
aI0
aI0
aI0
aI3
aa(lp1188
I0
aI1
aI0
aI1
aI1
aI0
aI1
aI0
aI0
aI2
aI0
aI0
aI3
aa(lp1189
I0
aI1
aI0
aI1
aI1
aI0
aI1
aI0
aI0
aI2
aI0
aI0
aI3
aa(lp1190
I0
aI1
aI0
aI1
aI1
aI0
aI1
aI1
aI0
aI0
aI0
aI0
aI3
aa(lp1191
I0
aI0
aI0
aI1
aI1
aI1
aI3
aI0
aI0
aI0
aI0
aI0
aI3
aa(lp1192
I0
aI1
aI0
aI1
aI1
aI1
aI3
aI0
aI0
aI2
aI0
aI0
aI3
aa(lp1193
I0
aI1
aI0
aI1
aI1
aI0
aI1
aI0
aI0
aI2
aI0
aI0
aI3
aa(lp1194
I0
aI1
aI0
aI1
aI1
aI0
aI1
aI0
aI0
aI0
aI0
aI0
aI3
aa(lp1195
I0
aI1
aI0
aI1
aI1
aI0
aI1
aI0
aI0
aI0
aI0
aI0
aI3
aa(lp1196
I0
aI1
aI0
aI1
aI1
aI0
aI1
aI0
aI0
aI0
aI0
aI0
aI3
aa(lp1197
I1
aI4
aI0
aI1
aI1
aI0
aI1
aI0
aI0
aI0
aI0
aI0
aI3
aa(lp1198
I2
aI4
aI0
aI3
aI1
aI1
aI3
aI0
aI0
aI0
aI0
aI0
aI3
aa(lp1199
I2
aI4
aI1
aI5
aI1
aI2
aI3
aI1
aI0
aI0
aI0
aI2
aI3
aa(lp1200
I0
aI1
aI0
aI1
aI1
aI0
aI1
aI0
aI0
aI0
aI0
aI0
aI3
aa(lp1201
I0
aI1
aI0
aI1
aI1
aI0
aI1
aI0
aI0
aI0
aI0
aI0
aI3
aa(lp1202
I0
aI1
aI0
aI3
aI1
aI0
aI1
aI0
aI0
aI0
aI0
aI0
aI3
aa(lp1203
I0
aI1
aI0
aI1
aI1
aI0
aI1
aI0
aI0
aI0
aI0
aI0
aI3
aa(lp1204
I0
aI1
aI0
aI1
aI1
aI0
aI1
aI1
aI0
aI2
aI0
aI0
aI3
aa(lp1205
I0
aI1
aI0
aI1
aI1
aI0
aI3
aI0
aI0
aI2
aI0
aI0
aI3
aa(lp1206
I0
aI1
aI0
aI1
aI1
aI0
aI2
aI1
aI0
aI0
aI0
aI2
aI3
aa(lp1207
I0
aI1
aI0
aI1
aI1
aI0
aI1
aI0
aI0
aI2
aI0
aI0
aI3
aa(lp1208
I0
aI0
aI0
aI3
aI0
aI0
aI3
aI0
aI0
aI2
aI0
aI0
aI3
aa(lp1209
I0
aI1
aI0
aI1
aI1
aI0
aI1
aI0
aI0
aI2
aI0
aI0
aI3
aa(lp1210
I0
aI1
aI0
aI1
aI1
aI0
aI1
aI0
aI0
aI0
aI0
aI0
aI3
aa(lp1211
I0
aI1
aI0
aI1
aI1
aI0
aI1
aI1
aI0
aI0
aI0
aI0
aI3
aa(lp1212
I0
aI1
aI0
aI1
aI1
aI0
aI3
aI0
aI0
aI2
aI0
aI0
aI3
aa(lp1213
I0
aI1
aI0
aI1
aI1
aI1
aI3
aI0
aI0
aI2
aI0
aI0
aI3
aa(lp1214
I0
aI1
aI0
aI4
aI0
aI0
aI1
aI0
aI0
aI2
aI0
aI0
aI3
aa(lp1215
I0
aI0
aI0
aI4
aI0
aI0
aI2
aI1
aI0
aI2
aI0
aI0
aI3
aa(lp1216
I0
aI1
aI0
aI1
aI1
aI0
aI1
aI0
aI0
aI0
aI0
aI0
aI3
aa(lp1217
I0
aI1
aI0
aI1
aI1
aI0
aI3
aI0
aI0
aI0
aI0
aI0
aI3
aa(lp1218
I0
aI1
aI0
aI1
aI1
aI1
aI3
aI0
aI0
aI0
aI0
aI0
aI3
aa(lp1219
I0
aI1
aI0
aI4
aI0
aI0
aI1
aI1
aI0
aI0
aI0
aI2
aI3
aa(lp1220
I0
aI1
aI0
aI1
aI1
aI0
aI1
aI0
aI0
aI0
aI0
aI0
aI3
aa(lp1221
I2
aI4
aI0
aI3
aI1
aI0
aI1
aI0
aI0
aI0
aI0
aI0
aI3
aa(lp1222
I3
aI3
aI0
aI1
aI1
aI0
aI3
aI0
aI0
aI0
aI0
aI0
aI3
aa(lp1223
I0
aI1
aI0
aI1
aI1
aI0
aI1
aI1
aI0
aI0
aI0
aI2
aI3
aa(lp1224
I0
aI1
aI0
aI1
aI1
aI0
aI3
aI0
aI0
aI2
aI0
aI0
aI3
aa(lp1225
I0
aI0
aI0
aI1
aI1
aI0
aI1
aI0
aI0
aI0
aI0
aI0
aI3
aa(lp1226
I0
aI1
aI0
aI1
aI1
aI2
aI3
aI1
aI0
aI2
aI0
aI0
aI3
aa(lp1227
I0
aI1
aI0
aI1
aI1
aI1
aI3
aI0
aI0
aI2
aI0
aI0
aI3
aa(lp1228
I0
aI1
aI0
aI1
aI1
aI0
aI1
aI0
aI0
aI2
aI2
aI2
aI3
aa(lp1229
I0
aI2
aI0
aI1
aI1
aI0
aI1
aI0
aI0
aI0
aI0
aI0
aI3
aa(lp1230
I0
aI0
aI0
aI1
aI1
aI0
aI1
aI1
aI0
aI0
aI0
aI2
aI3
aa(lp1231
I0
aI1
aI0
aI1
aI0
aI0
aI1
aI0
aI0
aI0
aI0
aI0
aI3
aa(lp1232
I0
aI0
aI0
aI1
aI1
aI0
aI1
aI0
aI0
aI2
aI0
aI0
aI3
aa(lp1233
I0
aI0
aI0
aI1
aI1
aI0
aI1
aI0
aI0
aI2
aI0
aI0
aI3
aa(lp1234
I0
aI1
aI0
aI1
aI0
aI0
aI3
aI1
aI0
aI0
aI0
aI0
aI3
aa(lp1235
I0
aI1
aI0
aI3
aI1
aI0
aI3
aI0
aI0
aI0
aI0
aI0
aI3
aa(lp1236
I0
aI1
aI0
aI1
aI1
aI0
aI1
aI1
aI0
aI0
aI0
aI0
aI3
aa(lp1237
I0
aI0
aI0
aI1
aI1
aI0
aI1
aI0
aI0
aI2
aI0
aI0
aI3
aa(lp1238
I0
aI1
aI0
aI3
aI1
aI0
aI3
aI0
aI0
aI0
aI0
aI0
aI3
aa(lp1239
I0
aI1
aI0
aI1
aI1
aI0
aI1
aI1
aI0
aI0
aI0
aI0
aI3
aa(lp1240
I0
aI1
aI0
aI1
aI1
aI0
aI1
aI1
aI0
aI2
aI0
aI0
aI3
aa(lp1241
I0
aI2
aI0
aI1
aI1
aI0
aI1
aI0
aI0
aI0
aI0
aI0
aI3
aa(lp1242
I1
aI4
aI0
aI3
aI1
aI0
aI3
aI0
aI0
aI0
aI0
aI0
aI3
aa(lp1243
I0
aI0
aI0
aI1
aI1
aI0
aI1
aI1
aI0
aI2
aI0
aI0
aI3
aa(lp1244
I0
aI0
aI0
aI1
aI1
aI0
aI1
aI0
aI0
aI0
aI0
aI2
aI3
aa(lp1245
I0
aI4
aI0
aI4
aI1
aI0
aI1
aI0
aI0
aI0
aI0
aI0
aI3
aa(lp1246
I0
aI1
aI0
aI1
aI1
aI0
aI1
aI1
aI0
aI0
aI0
aI0
aI3
aa(lp1247
I0
aI1
aI0
aI1
aI1
aI0
aI1
aI0
aI0
aI0
aI0
aI0
aI3
aa(lp1248
I0
aI1
aI0
aI1
aI1
aI1
aI3
aI0
aI0
aI0
aI0
aI0
aI3
aa(lp1249
I0
aI0
aI0
aI1
aI1
aI0
aI2
aI1
aI0
aI0
aI0
aI0
aI3
aa(lp1250
I0
aI0
aI0
aI1
aI1
aI0
aI3
aI0
aI0
aI2
aI0
aI0
aI3
aa(lp1251
I0
aI1
aI0
aI1
aI1
aI0
aI1
aI1
aI0
aI0
aI0
aI2
aI3
aa(lp1252
I0
aI0
aI0
aI1
aI1
aI0
aI1
aI1
aI0
aI0
aI0
aI1
aI3
aa(lp1253
I0
aI1
aI0
aI1
aI0
aI0
aI1
aI1
aI0
aI0
aI0
aI2
aI3
aa(lp1254
I0
aI1
aI0
aI1
aI1
aI0
aI1
aI1
aI0
aI0
aI0
aI0
aI3
aa(lp1255
I0
aI4
aI0
aI1
aI1
aI0
aI3
aI0
aI0
aI0
aI0
aI0
aI3
aa(lp1256
I0
aI1
aI0
aI3
aI1
aI0
aI3
aI1
aI0
aI0
aI0
aI0
aI3
aa(lp1257
I0
aI0
aI0
aI1
aI1
aI0
aI1
aI1
aI0
aI0
aI0
aI0
aI3
aa(lp1258
I0
aI1
aI0
aI1
aI0
aI0
aI1
aI1
aI0
aI0
aI0
aI0
aI3
aa(lp1259
I0
aI1
aI0
aI1
aI0
aI1
aI3
aI0
aI0
aI2
aI2
aI0
aI3
aa(lp1260
I0
aI1
aI0
aI1
aI1
aI0
aI1
aI0
aI0
aI2
aI0
aI0
aI3
aa(lp1261
I0
aI1
aI0
aI1
aI1
aI0
aI1
aI0
aI0
aI0
aI0
aI0
aI3
aa(lp1262
I0
aI1
aI1
aI5
aI1
aI1
aI3
aI0
aI0
aI0
aI0
aI0
aI3
aa(lp1263
I0
aI1
aI0
aI3
aI1
aI0
aI1
aI1
aI0
aI0
aI0
aI0
aI3
aa(lp1264
I0
aI1
aI0
aI3
aI1
aI0
aI1
aI0
aI0
aI0
aI0
aI0
aI3
aa(lp1265
I0
aI1
aI1
aI1
aI1
aI0
aI2
aI1
aI0
aI0
aI0
aI2
aI3
aa(lp1266
I0
aI1
aI0
aI1
aI1
aI0
aI1
aI1
aI0
aI0
aI0
aI2
aI3
aa(lp1267
I0
aI1
aI0
aI1
aI1
aI0
aI1
aI0
aI0
aI2
aI0
aI0
aI3
aa(lp1268
I0
aI1
aI0
aI1
aI1
aI0
aI1
aI1
aI0
aI0
aI0
aI2
aI3
aa(lp1269
I0
aI1
aI0
aI1
aI1
aI0
aI2
aI1
aI0
aI0
aI0
aI0
aI3
aa(lp1270
I0
aI0
aI0
aI1
aI1
aI0
aI1
aI1
aI0
aI1
aI0
aI0
aI3
aa(lp1271
I0
aI1
aI0
aI1
aI1
aI0
aI1
aI1
aI0
aI0
aI0
aI1
aI3
aa(lp1272
I0
aI1
aI0
aI1
aI1
aI0
aI1
aI1
aI0
aI0
aI0
aI0
aI3
aa(lp1273
I0
aI0
aI0
aI3
aI1
aI0
aI3
aI0
aI0
aI2
aI0
aI0
aI3
aa(lp1274
I0
aI1
aI0
aI1
aI1
aI0
aI1
aI0
aI0
aI0
aI0
aI0
aI3
aa(lp1275
I0
aI1
aI0
aI1
aI1
aI0
aI2
aI1
aI0
aI2
aI0
aI0
aI3
aa(lp1276
I0
aI0
aI0
aI1
aI1
aI0
aI1
aI0
aI0
aI2
aI0
aI0
aI3
aa(lp1277
I0
aI0
aI0
aI1
aI0
aI0
aI1
aI1
aI0
aI2
aI2
aI2
aI3
aa(lp1278
I0
aI1
aI0
aI1
aI1
aI0
aI1
aI1
aI0
aI0
aI0
aI0
aI3
aa(lp1279
I0
aI1
aI0
aI1
aI0
aI0
aI1
aI1
aI0
aI0
aI0
aI0
aI3
aa(lp1280
I0
aI0
aI0
aI1
aI1
aI0
aI1
aI0
aI0
aI2
aI0
aI0
aI3
aa(lp1281
I0
aI1
aI0
aI4
aI0
aI0
aI1
aI1
aI0
aI0
aI0
aI1
aI3
aa(lp1282
I0
aI1
aI0
aI1
aI1
aI0
aI1
aI1
aI0
aI0
aI0
aI0
aI3
aa(lp1283
I0
aI0
aI0
aI1
aI1
aI0
aI1
aI0
aI0
aI0
aI0
aI0
aI3
aa(lp1284
I0
aI1
aI0
aI1
aI0
aI0
aI1
aI1
aI0
aI0
aI0
aI2
aI3
aa(lp1285
I0
aI1
aI0
aI1
aI1
aI0
aI3
aI0
aI0
aI0
aI0
aI0
aI3
aa(lp1286
I0
aI1
aI0
aI1
aI1
aI0
aI2
aI1
aI0
aI2
aI0
aI0
aI3
aa(lp1287
I0
aI1
aI0
aI1
aI1
aI0
aI1
aI1
aI0
aI0
aI0
aI0
aI3
aa(lp1288
I0
aI1
aI0
aI1
aI1
aI0
aI1
aI0
aI0
aI2
aI0
aI0
aI3
aa(lp1289
I2
aI4
aI0
aI3
aI1
aI0
aI1
aI0
aI0
aI0
aI0
aI0
aI3
aa(lp1290
I0
aI1
aI0
aI1
aI1
aI0
aI1
aI0
aI0
aI0
aI0
aI0
aI3
aa(lp1291
I0
aI1
aI0
aI1
aI1
aI0
aI1
aI1
aI0
aI0
aI0
aI2
aI3
aa(lp1292
I0
aI1
aI0
aI1
aI1
aI0
aI3
aI1
aI0
aI0
aI0
aI0
aI3
aa(lp1293
I0
aI1
aI0
aI1
aI0
aI2
aI3
aI1
aI0
aI0
aI0
aI2
aI3
aa(lp1294
I0
aI1
aI0
aI1
aI1
aI0
aI1
aI1
aI0
aI0
aI0
aI0
aI3
aa(lp1295
I0
aI0
aI0
aI1
aI1
aI0
aI1
aI1
aI0
aI0
aI0
aI0
aI3
aa(lp1296
I0
aI1
aI0
aI1
aI0
aI2
aI3
aI1
aI0
aI0
aI0
aI2
aI3
aa(lp1297
I0
aI1
aI0
aI1
aI1
aI0
aI1
aI1
aI0
aI0
aI0
aI2
aI3
aa(lp1298
I0
aI1
aI0
aI1
aI0
aI2
aI3
aI1
aI0
aI0
aI0
aI0
aI3
aa(lp1299
I0
aI1
aI0
aI1
aI1
aI0
aI1
aI0
aI0
aI0
aI0
aI0
aI3
aa(lp1300
I0
aI1
aI0
aI1
aI0
aI2
aI3
aI1
aI0
aI0
aI0
aI0
aI3
aa(lp1301
I0
aI1
aI0
aI1
aI0
aI2
aI3
aI1
aI0
aI0
aI0
aI0
aI3
aa(lp1302
I0
aI1
aI0
aI1
aI1
aI0
aI3
aI1
aI0
aI0
aI0
aI0
aI3
aa(lp1303
I0
aI1
aI0
aI1
aI0
aI2
aI3
aI1
aI0
aI0
aI0
aI0
aI3
aa(lp1304
I0
aI1
aI0
aI1
aI0
aI2
aI3
aI1
aI0
aI2
aI0
aI0
aI3
aa(lp1305
I0
aI1
aI0
aI1
aI0
aI2
aI3
aI1
aI0
aI0
aI1
aI2
aI3
aa(lp1306
I0
aI0
aI0
aI1
aI0
aI0
aI3
aI0
aI0
aI0
aI0
aI0
aI3
aa(lp1307
I0
aI0
aI0
aI1
aI1
aI0
aI1
aI0
aI0
aI0
aI0
aI0
aI3
aa(lp1308
I0
aI1
aI0
aI1
aI0
aI2
aI3
aI1
aI0
aI0
aI0
aI0
aI3
aa(lp1309
I0
aI1
aI0
aI1
aI1
aI0
aI1
aI1
aI0
aI0
aI0
aI2
aI3
aa(lp1310
I2
aI0
aI0
aI1
aI1
aI2
aI3
aI1
aI0
aI1
aI0
aI0
aI3
aa(lp1311
I0
aI1
aI0
aI3
aI1
aI0
aI1
aI1
aI0
aI0
aI0
aI2
aI3
aa(lp1312
I0
aI1
aI0
aI1
aI0
aI2
aI3
aI1
aI0
aI0
aI0
aI0
aI3
aa(lp1313
I0
aI1
aI0
aI1
aI1
aI0
aI1
aI1
aI0
aI0
aI1
aI2
aI3
aa(lp1314
I0
aI1
aI0
aI1
aI0
aI2
aI3
aI1
aI0
aI0
aI0
aI0
aI3
aa(lp1315
I0
aI1
aI0
aI1
aI1
aI0
aI2
aI1
aI0
aI0
aI0
aI0
aI3
aa(lp1316
I0
aI1
aI0
aI1
aI0
aI2
aI3
aI1
aI0
aI2
aI0
aI0
aI3
aa(lp1317
I0
aI0
aI0
aI1
aI1
aI0
aI1
aI1
aI0
aI0
aI0
aI0
aI3
aa(lp1318
I0
aI0
aI0
aI1
aI1
aI0
aI1
aI0
aI0
aI0
aI0
aI0
aI3
aa(lp1319
I0
aI4
aI0
aI3
aI0
aI0
aI1
aI0
aI0
aI0
aI0
aI0
aI3
aa(lp1320
I0
aI0
aI0
aI1
aI1
aI0
aI1
aI0
aI0
aI0
aI0
aI2
aI3
aa(lp1321
I0
aI1
aI0
aI1
aI1
aI1
aI3
aI0
aI0
aI0
aI0
aI0
aI3
aa(lp1322
I0
aI1
aI0
aI1
aI1
aI0
aI1
aI1
aI0
aI0
aI2
aI2
aI3
aa(lp1323
I0
aI1
aI0
aI1
aI1
aI0
aI1
aI1
aI0
aI2
aI2
aI2
aI3
aa(lp1324
I0
aI1
aI0
aI1
aI0
aI0
aI1
aI0
aI0
aI0
aI0
aI0
aI3
aa(lp1325
I1
aI4
aI0
aI1
aI1
aI1
aI3
aI1
aI0
aI2
aI0
aI0
aI3
aa(lp1326
I0
aI1
aI0
aI1
aI1
aI0
aI1
aI0
aI0
aI2
aI0
aI0
aI3
aa(lp1327
I0
aI1
aI0
aI1
aI1
aI0
aI1
aI1
aI0
aI0
aI0
aI0
aI3
aa(lp1328
I0
aI1
aI0
aI1
aI1
aI0
aI3
aI0
aI0
aI2
aI0
aI0
aI3
aa(lp1329
I0
aI0
aI0
aI1
aI1
aI1
aI3
aI1
aI0
aI0
aI0
aI0
aI3
aa(lp1330
I0
aI1
aI0
aI4
aI0
aI0
aI1
aI0
aI0
aI0
aI0
aI0
aI3
aa(lp1331
I0
aI0
aI0
aI1
aI1
aI0
aI1
aI0
aI0
aI2
aI0
aI0
aI3
aa(lp1332
I0
aI1
aI0
aI1
aI0
aI0
aI1
aI0
aI0
aI2
aI0
aI0
aI3
aa(lp1333
I0
aI1
aI0
aI1
aI1
aI0
aI1
aI1
aI0
aI0
aI0
aI0
aI3
aa(lp1334
I0
aI1
aI0
aI1
aI1
aI0
aI1
aI1
aI0
aI0
aI0
aI0
aI3
aa(lp1335
I0
aI0
aI0
aI1
aI1
aI0
aI3
aI0
aI0
aI2
aI0
aI0
aI3
aa(lp1336
I0
aI1
aI0
aI1
aI1
aI0
aI1
aI1
aI0
aI0
aI2
aI2
aI3
aa(lp1337
I0
aI1
aI0
aI1
aI1
aI0
aI1
aI1
aI0
aI0
aI0
aI0
aI3
aa(lp1338
I0
aI4
aI1
aI5
aI1
aI0
aI3
aI0
aI0
aI2
aI0
aI0
aI3
aa(lp1339
I0
aI1
aI0
aI3
aI0
aI0
aI3
aI0
aI0
aI0
aI0
aI0
aI3
aa(lp1340
I0
aI1
aI0
aI1
aI1
aI0
aI1
aI1
aI0
aI2
aI0
aI0
aI3
aa(lp1341
I0
aI1
aI0
aI1
aI1
aI0
aI1
aI0
aI0
aI2
aI0
aI0
aI3
aa(lp1342
I0
aI1
aI0
aI1
aI1
aI0
aI1
aI1
aI0
aI2
aI0
aI0
aI3
aa(lp1343
I0
aI1
aI1
aI5
aI1
aI0
aI1
aI0
aI0
aI0
aI0
aI0
aI3
aa(lp1344
I0
aI1
aI0
aI1
aI1
aI0
aI1
aI1
aI0
aI0
aI0
aI0
aI3
aa(lp1345
I0
aI0
aI0
aI1
aI1
aI0
aI3
aI0
aI0
aI0
aI0
aI0
aI3
aa(lp1346
I0
aI1
aI0
aI1
aI1
aI0
aI1
aI0
aI0
aI2
aI0
aI0
aI3
aa(lp1347
I0
aI1
aI0
aI1
aI1
aI0
aI2
aI1
aI0
aI0
aI0
aI2
aI3
aa(lp1348
I0
aI1
aI0
aI4
aI1
aI0
aI1
aI0
aI0
aI2
aI0
aI0
aI3
aa(lp1349
I0
aI1
aI0
aI1
aI1
aI0
aI1
aI0
aI0
aI0
aI0
aI2
aI3
aa(lp1350
I0
aI1
aI0
aI3
aI1
aI3
aI3
aI1
aI0
aI0
aI0
aI0
aI3
aa(lp1351
I0
aI1
aI0
aI1
aI1
aI0
aI1
aI0
aI0
aI0
aI0
aI0
aI3
aa(lp1352
I0
aI0
aI0
aI4
aI0
aI0
aI3
aI0
aI0
aI0
aI0
aI0
aI3
aa(lp1353
I0
aI0
aI0
aI3
aI1
aI4
aI1
aI0
aI0
aI0
aI0
aI2
aI3
aa(lp1354
I0
aI4
aI0
aI4
aI1
aI0
aI3
aI0
aI0
aI0
aI0
aI0
aI3
aa(lp1355
I0
aI1
aI0
aI1
aI1
aI0
aI3
aI1
aI0
aI0
aI0
aI0
aI3
aa(lp1356
I2
aI4
aI1
aI5
aI1
aI0
aI3
aI0
aI0
aI2
aI0
aI0
aI3
aa(lp1357
I0
aI0
aI0
aI1
aI1
aI4
aI1
aI0
aI0
aI0
aI2
aI2
aI3
aa(lp1358
I0
aI1
aI0
aI1
aI1
aI1
aI3
aI0
aI0
aI0
aI0
aI2
aI3
aa(lp1359
I0
aI1
aI0
aI1
aI1
aI0
aI1
aI0
aI0
aI0
aI0
aI0
aI3
aa(lp1360
I0
aI1
aI0
aI1
aI1
aI0
aI1
aI1
aI0
aI0
aI0
aI0
aI3
aa(lp1361
I0
aI1
aI0
aI1
aI0
aI0
aI3
aI0
aI0
aI0
aI2
aI2
aI3
aa(lp1362
I0
aI1
aI0
aI1
aI1
aI0
aI1
aI1
aI0
aI0
aI0
aI0
aI3
aa(lp1363
I0
aI1
aI1
aI5
aI1
aI1
aI3
aI0
aI0
aI2
aI0
aI0
aI3
aa(lp1364
I0
aI1
aI0
aI1
aI1
aI0
aI2
aI1
aI0
aI2
aI0
aI0
aI3
aa(lp1365
I0
aI1
aI0
aI1
aI1
aI0
aI1
aI1
aI0
aI0
aI0
aI0
aI3
aa(lp1366
I0
aI1
aI0
aI1
aI1
aI0
aI3
aI0
aI0
aI0
aI0
aI0
aI3
aa(lp1367
I0
aI1
aI0
aI1
aI1
aI0
aI1
aI1
aI0
aI0
aI0
aI0
aI3
aa(lp1368
I2
aI4
aI0
aI1
aI1
aI2
aI3
aI1
aI0
aI0
aI0
aI2
aI3
aa(lp1369
I0
aI1
aI0
aI1
aI1
aI0
aI1
aI0
aI0
aI0
aI0
aI2
aI3
aa(lp1370
I0
aI1
aI0
aI1
aI1
aI0
aI1
aI0
aI0
aI0
aI0
aI0
aI3
aa(lp1371
I0
aI1
aI0
aI1
aI1
aI0
aI1
aI1
aI0
aI0
aI0
aI2
aI3
aa(lp1372
I0
aI1
aI0
aI1
aI1
aI0
aI1
aI0
aI0
aI0
aI0
aI0
aI3
aa(lp1373
I0
aI1
aI0
aI1
aI1
aI0
aI2
aI1
aI0
aI0
aI0
aI0
aI3
aa(lp1374
I0
aI1
aI0
aI1
aI1
aI0
aI2
aI1
aI0
aI0
aI0
aI0
aI3
aa(lp1375
I0
aI1
aI0
aI3
aI1
aI0
aI2
aI1
aI0
aI0
aI0
aI0
aI3
aa(lp1376
I0
aI1
aI0
aI3
aI1
aI0
aI3
aI0
aI0
aI0
aI0
aI0
aI3
aa(lp1377
I0
aI1
aI0
aI1
aI1
aI0
aI2
aI0
aI0
aI2
aI2
aI0
aI3
aa(lp1378
I0
aI2
aI0
aI4
aI0
aI0
aI1
aI0
aI0
aI0
aI0
aI0
aI3
aa(lp1379
I0
aI0
aI0
aI4
aI1
aI0
aI1
aI0
aI0
aI0
aI0
aI0
aI3
aa(lp1380
I0
aI1
aI0
aI1
aI1
aI0
aI1
aI0
aI0
aI0
aI0
aI2
aI3
aa(lp1381
I0
aI1
aI0
aI1
aI1
aI0
aI1
aI0
aI0
aI2
aI0
aI0
aI3
aa(lp1382
I1
aI4
aI0
aI1
aI1
aI1
aI3
aI0
aI0
aI2
aI2
aI0
aI3
aa(lp1383
I0
aI1
aI0
aI1
aI1
aI0
aI1
aI0
aI0
aI0
aI0
aI0
aI3
aa(lp1384
I0
aI1
aI0
aI1
aI1
aI0
aI1
aI0
aI0
aI0
aI2
aI2
aI3
aa(lp1385
I0
aI0
aI0
aI1
aI1
aI0
aI2
aI1
aI0
aI0
aI2
aI2
aI3
aa(lp1386
I0
aI1
aI0
aI1
aI1
aI0
aI2
aI1
aI0
aI0
aI2
aI2
aI3
aa(lp1387
I0
aI0
aI0
aI1
aI1
aI0
aI3
aI0
aI0
aI2
aI0
aI0
aI3
aa(lp1388
I0
aI1
aI0
aI1
aI1
aI0
aI1
aI0
aI0
aI0
aI0
aI0
aI3
aa(lp1389
I0
aI1
aI0
aI4
aI1
aI0
aI3
aI0
aI0
aI0
aI0
aI0
aI3
aa(lp1390
I0
aI0
aI0
aI1
aI1
aI1
aI3
aI1
aI0
aI0
aI0
aI2
aI3
aa(lp1391
I0
aI4
aI0
aI1
aI1
aI0
aI3
aI0
aI0
aI0
aI0
aI0
aI3
aa(lp1392
I0
aI1
aI0
aI1
aI1
aI0
aI1
aI1
aI0
aI2
aI0
aI0
aI3
aa(lp1393
I0
aI1
aI0
aI1
aI1
aI1
aI3
aI1
aI0
aI0
aI0
aI2
aI3
aa(lp1394
I0
aI0
aI0
aI0
aI1
aI0
aI1
aI0
aI0
aI2
aI0
aI0
aI3
aa(lp1395
I1
aI4
aI0
aI1
aI1
aI1
aI3
aI0
aI0
aI0
aI0
aI2
aI3
aa(lp1396
I0
aI1
aI0
aI1
aI1
aI0
aI1
aI1
aI0
aI0
aI0
aI2
aI3
aa(lp1397
I1
aI4
aI0
aI1
aI1
aI0
aI3
aI0
aI0
aI0
aI0
aI0
aI3
aa(lp1398
I0
aI1
aI0
aI1
aI1
aI0
aI1
aI0
aI0
aI0
aI0
aI2
aI3
aa(lp1399
I0
aI0
aI0
aI0
aI1
aI0
aI1
aI0
aI0
aI0
aI0
aI0
aI3
aa(lp1400
I0
aI1
aI0
aI1
aI1
aI0
aI1
aI0
aI0
aI0
aI0
aI2
aI3
aa(lp1401
I0
aI1
aI0
aI1
aI1
aI0
aI1
aI0
aI0
aI0
aI0
aI0
aI3
aa(lp1402
I0
aI1
aI0
aI1
aI1
aI0
aI1
aI1
aI0
aI0
aI0
aI0
aI3
aa(lp1403
I0
aI1
aI0
aI1
aI1
aI0
aI1
aI0
aI0
aI2
aI0
aI0
aI3
aa(lp1404
I0
aI1
aI0
aI3
aI1
aI0
aI3
aI1
aI0
aI0
aI0
aI0
aI3
aa(lp1405
I0
aI1
aI0
aI1
aI1
aI0
aI1
aI0
aI0
aI0
aI0
aI0
aI3
aa(lp1406
I0
aI4
aI0
aI1
aI1
aI0
aI1
aI0
aI0
aI0
aI0
aI2
aI3
aa(lp1407
I0
aI1
aI0
aI1
aI1
aI0
aI3
aI0
aI0
aI0
aI0
aI0
aI3
aa(lp1408
I0
aI1
aI0
aI1
aI0
aI0
aI1
aI0
aI0
aI2
aI0
aI0
aI3
aa(lp1409
I0
aI4
aI0
aI1
aI1
aI0
aI1
aI1
aI0
aI2
aI0
aI0
aI3
aa(lp1410
I0
aI1
aI1
aI5
aI1
aI0
aI3
aI0
aI0
aI2
aI0
aI0
aI3
aa(lp1411
I0
aI1
aI0
aI1
aI1
aI0
aI1
aI0
aI0
aI0
aI0
aI0
aI3
aa(lp1412
I0
aI1
aI0
aI3
aI1
aI0
aI3
aI0
aI0
aI0
aI0
aI0
aI3
aa(lp1413
I0
aI1
aI0
aI1
aI1
aI0
aI1
aI0
aI0
aI2
aI0
aI0
aI3
aa(lp1414
I0
aI1
aI0
aI1
aI1
aI0
aI3
aI0
aI0
aI2
aI0
aI0
aI3
aa(lp1415
I0
aI1
aI0
aI1
aI1
aI0
aI1
aI0
aI0
aI2
aI0
aI0
aI3
aa(lp1416
I0
aI0
aI1
aI5
aI1
aI1
aI3
aI0
aI0
aI0
aI0
aI0
aI3
aa(lp1417
I1
aI4
aI0
aI1
aI1
aI0
aI3
aI0
aI0
aI0
aI0
aI0
aI3
aa(lp1418
I0
aI1
aI0
aI4
aI1
aI0
aI1
aI1
aI0
aI0
aI0
aI0
aI3
aa(lp1419
I0
aI0
aI0
aI1
aI1
aI0
aI1
aI1
aI0
aI2
aI2
aI2
aI3
aa(lp1420
I0
aI1
aI0
aI1
aI1
aI0
aI1
aI1
aI0
aI2
aI0
aI0
aI3
aa(lp1421
I0
aI1
aI0
aI1
aI1
aI0
aI3
aI0
aI0
aI2
aI0
aI0
aI3
aa(lp1422
I0
aI1
aI0
aI1
aI1
aI0
aI1
aI0
aI0
aI2
aI0
aI0
aI3
aa(lp1423
I0
aI2
aI0
aI1
aI1
aI0
aI1
aI0
aI0
aI0
aI0
aI0
aI3
aa(lp1424
I0
aI0
aI0
aI1
aI1
aI0
aI1
aI0
aI0
aI0
aI0
aI0
aI3
aa(lp1425
I0
aI2
aI0
aI1
aI1
aI0
aI3
aI0
aI0
aI2
aI0
aI0
aI3
aa(lp1426
I0
aI1
aI0
aI1
aI1
aI0
aI1
aI0
aI0
aI2
aI0
aI0
aI3
aa(lp1427
I1
aI4
aI0
aI4
aI1
aI0
aI3
aI0
aI0
aI2
aI0
aI0
aI3
aa(lp1428
I0
aI0
aI0
aI4
aI1
aI0
aI3
aI0
aI0
aI0
aI0
aI0
aI3
aa(lp1429
I0
aI1
aI0
aI1
aI1
aI0
aI3
aI0
aI0
aI0
aI0
aI0
aI3
aa(lp1430
I0
aI1
aI0
aI1
aI1
aI0
aI1
aI1
aI0
aI2
aI0
aI0
aI3
aa(lp1431
I0
aI1
aI0
aI1
aI1
aI0
aI1
aI0
aI0
aI0
aI0
aI0
aI3
aa(lp1432
I0
aI0
aI1
aI5
aI1
aI1
aI3
aI0
aI0
aI0
aI0
aI0
aI3
aa(lp1433
I0
aI2
aI0
aI1
aI1
aI0
aI3
aI0
aI0
aI2
aI0
aI0
aI3
aa(lp1434
I0
aI1
aI0
aI1
aI1
aI0
aI1
aI0
aI0
aI0
aI0
aI0
aI3
aa(lp1435
I0
aI1
aI0
aI1
aI1
aI0
aI1
aI0
aI0
aI2
aI0
aI0
aI3
aa(lp1436
I0
aI4
aI0
aI1
aI1
aI0
aI1
aI0
aI0
aI0
aI0
aI0
aI3
aa(lp1437
I2
aI4
aI0
aI1
aI1
aI0
aI0
aI0
aI0
aI2
aI2
aI0
aI3
aa(lp1438
I0
aI1
aI0
aI1
aI1
aI0
aI1
aI1
aI0
aI0
aI2
aI2
aI3
aa(lp1439
I0
aI1
aI0
aI1
aI1
aI0
aI1
aI1
aI0
aI2
aI2
aI0
aI4
aa(lp1440
I0
aI1
aI0
aI1
aI1
aI0
aI1
aI1
aI0
aI0
aI0
aI2
aI4
aa(lp1441
I0
aI1
aI0
aI1
aI1
aI0
aI1
aI1
aI0
aI0
aI0
aI0
aI4
aa(lp1442
I0
aI1
aI0
aI1
aI1
aI0
aI1
aI0
aI0
aI0
aI0
aI0
aI4
aa(lp1443
I0
aI1
aI0
aI1
aI1
aI1
aI3
aI1
aI0
aI0
aI0
aI0
aI4
aa(lp1444
I0
aI1
aI0
aI1
aI1
aI1
aI3
aI1
aI0
aI0
aI0
aI0
aI4
aa(lp1445
I0
aI1
aI0
aI1
aI1
aI0
aI1
aI0
aI0
aI0
aI0
aI0
aI4
aa(lp1446
I0
aI1
aI0
aI1
aI1
aI1
aI3
aI0
aI0
aI2
aI2
aI2
aI4
aa(lp1447
I0
aI1
aI0
aI1
aI1
aI0
aI1
aI0
aI0
aI0
aI0
aI0
aI4
aa(lp1448
I0
aI0
aI0
aI1
aI1
aI1
aI3
aI0
aI0
aI0
aI0
aI0
aI4
aa(lp1449
I0
aI1
aI0
aI4
aI0
aI0
aI1
aI1
aI0
aI0
aI0
aI1
aI4
aa(lp1450
I0
aI1
aI0
aI1
aI1
aI0
aI2
aI1
aI0
aI0
aI0
aI0
aI4
aa(lp1451
I0
aI1
aI0
aI1
aI1
aI0
aI1
aI1
aI0
aI0
aI0
aI0
aI4
aa(lp1452
I0
aI0
aI0
aI1
aI1
aI0
aI1
aI1
aI0
aI2
aI0
aI0
aI4
aa(lp1453
I0
aI1
aI0
aI1
aI1
aI0
aI2
aI1
aI0
aI0
aI0
aI0
aI4
aa(lp1454
I1
aI4
aI0
aI1
aI0
aI0
aI1
aI1
aI0
aI0
aI0
aI0
aI4
aa(lp1455
I2
aI4
aI0
aI1
aI1
aI0
aI1
aI0
aI0
aI0
aI0
aI0
aI4
aa(lp1456
I0
aI1
aI0
aI1
aI1
aI0
aI2
aI1
aI0
aI0
aI0
aI2
aI4
aa(lp1457
I0
aI1
aI0
aI1
aI1
aI0
aI1
aI0
aI0
aI2
aI0
aI0
aI4
aa(lp1458
I0
aI0
aI0
aI3
aI1
aI0
aI1
aI1
aI0
aI2
aI0
aI0
aI4
aa(lp1459
I0
aI1
aI0
aI1
aI1
aI0
aI1
aI0
aI0
aI2
aI0
aI0
aI4
aa(lp1460
I0
aI1
aI0
aI1
aI1
aI0
aI1
aI1
aI0
aI0
aI0
aI0
aI4
aa(lp1461
I0
aI1
aI0
aI1
aI1
aI0
aI1
aI1
aI0
aI0
aI0
aI0
aI4
aa(lp1462
I0
aI1
aI0
aI1
aI1
aI0
aI1
aI1
aI0
aI0
aI0
aI2
aI4
aa(lp1463
I0
aI1
aI0
aI1
aI1
aI1
aI3
aI1
aI0
aI0
aI1
aI2
aI4
aa(lp1464
I0
aI1
aI0
aI1
aI1
aI0
aI2
aI1
aI0
aI2
aI2
aI0
aI4
aa(lp1465
I0
aI1
aI0
aI1
aI1
aI1
aI3
aI1
aI0
aI0
aI2
aI2
aI4
aa(lp1466
I0
aI1
aI0
aI1
aI1
aI0
aI3
aI0
aI0
aI0
aI0
aI0
aI4
aa(lp1467
I0
aI1
aI0
aI1
aI1
aI0
aI1
aI0
aI0
aI2
aI0
aI0
aI4
aa(lp1468
I0
aI2
aI0
aI1
aI1
aI0
aI1
aI0
aI0
aI2
aI0
aI0
aI4
aa(lp1469
I0
aI0
aI0
aI1
aI1
aI0
aI1
aI1
aI0
aI0
aI0
aI0
aI4
aa(lp1470
I0
aI1
aI0
aI1
aI0
aI0
aI1
aI1
aI0
aI2
aI0
aI0
aI4
aa(lp1471
I0
aI4
aI0
aI0
aI1
aI0
aI2
aI1
aI0
aI0
aI0
aI0
aI4
aa(lp1472
I0
aI1
aI0
aI1
aI0
aI0
aI3
aI0
aI0
aI2
aI0
aI0
aI4
aa(lp1473
I0
aI0
aI0
aI1
aI1
aI0
aI1
aI0
aI0
aI0
aI0
aI0
aI4
aa(lp1474
I0
aI1
aI0
aI1
aI1
aI0
aI1
aI1
aI0
aI2
aI0
aI0
aI4
aa(lp1475
I0
aI1
aI0
aI1
aI1
aI0
aI1
aI0
aI0
aI0
aI0
aI0
aI4
aa(lp1476
I0
aI1
aI0
aI1
aI1
aI0
aI1
aI1
aI0
aI0
aI0
aI0
aI4
aa(lp1477
I0
aI1
aI0
aI1
aI1
aI0
aI1
aI0
aI0
aI2
aI0
aI0
aI4
aa(lp1478
I0
aI0
aI0
aI3
aI1
aI0
aI1
aI1
aI0
aI2
aI0
aI0
aI4
aa(lp1479
I0
aI1
aI0
aI3
aI1
aI0
aI1
aI0
aI0
aI2
aI0
aI0
aI4
aa(lp1480
I0
aI1
aI0
aI1
aI1
aI0
aI1
aI1
aI0
aI0
aI0
aI0
aI4
aa(lp1481
I0
aI1
aI0
aI3
aI1
aI0
aI1
aI0
aI0
aI0
aI0
aI0
aI4
aa(lp1482
I2
aI4
aI0
aI1
aI1
aI1
aI3
aI1
aI0
aI0
aI0
aI0
aI4
aa(lp1483
I0
aI1
aI0
aI3
aI1
aI0
aI1
aI0
aI0
aI2
aI0
aI0
aI4
aa(lp1484
I0
aI0
aI0
aI1
aI1
aI0
aI1
aI1
aI0
aI0
aI0
aI0
aI4
aa(lp1485
I0
aI1
aI0
aI3
aI1
aI0
aI3
aI0
aI0
aI0
aI0
aI0
aI4
aa(lp1486
I0
aI1
aI0
aI1
aI1
aI0
aI1
aI1
aI0
aI0
aI0
aI0
aI4
aa(lp1487
I0
aI1
aI0
aI1
aI1
aI0
aI1
aI1
aI0
aI0
aI0
aI0
aI4
aa(lp1488
I0
aI0
aI0
aI1
aI1
aI0
aI3
aI1
aI0
aI0
aI0
aI0
aI4
aa(lp1489
I0
aI1
aI0
aI4
aI0
aI0
aI3
aI1
aI0
aI2
aI0
aI0
aI4
aa(lp1490
I1
aI4
aI0
aI1
aI1
aI1
aI3
aI1
aI0
aI0
aI0
aI2
aI4
aa(lp1491
I0
aI1
aI0
aI1
aI1
aI0
aI1
aI1
aI0
aI0
aI0
aI0
aI4
aa(lp1492
I0
aI4
aI0
aI4
aI0
aI0
aI1
aI0
aI0
aI2
aI0
aI2
aI4
aa(lp1493
I0
aI1
aI0
aI1
aI1
aI0
aI1
aI0
aI0
aI0
aI0
aI0
aI4
aa(lp1494
I0
aI1
aI0
aI1
aI0
aI0
aI3
aI0
aI0
aI0
aI0
aI0
aI4
aa(lp1495
I0
aI2
aI0
aI1
aI0
aI0
aI1
aI0
aI0
aI0
aI0
aI0
aI4
aa(lp1496
I0
aI1
aI0
aI1
aI1
aI0
aI1
aI1
aI0
aI2
aI0
aI0
aI4
aa(lp1497
I0
aI0
aI3
aI4
aI0
aI0
aI3
aI0
aI0
aI0
aI0
aI0
aI4
aa(lp1498
I0
aI1
aI0
aI1
aI1
aI0
aI1
aI1
aI0
aI2
aI0
aI0
aI4
aa(lp1499
I0
aI1
aI0
aI1
aI1
aI0
aI1
aI0
aI0
aI0
aI0
aI0
aI4
aa(lp1500
I0
aI1
aI0
aI1
aI1
aI0
aI1
aI0
aI0
aI2
aI0
aI0
aI4
aa(lp1501
I0
aI1
aI0
aI1
aI1
aI0
aI1
aI0
aI0
aI0
aI0
aI0
aI4
aa(lp1502
I0
aI0
aI0
aI4
aI1
aI0
aI1
aI1
aI0
aI0
aI2
aI2
aI4
aa(lp1503
I0
aI1
aI0
aI1
aI1
aI1
aI3
aI1
aI0
aI0
aI0
aI2
aI4
aa(lp1504
I0
aI1
aI0
aI3
aI1
aI0
aI1
aI1
aI0
aI0
aI0
aI2
aI4
aa(lp1505
I0
aI4
aI0
aI2
aI1
aI0
aI1
aI0
aI0
aI2
aI0
aI0
aI4
aa(lp1506
I0
aI0
aI0
aI1
aI1
aI0
aI1
aI0
aI0
aI0
aI0
aI0
aI4
aa(lp1507
I0
aI1
aI0
aI1
aI1
aI4
aI3
aI0
aI0
aI1
aI2
aI2
aI4
aa(lp1508
I0
aI0
aI1
aI1
aI1
aI0
aI3
aI0
aI0
aI0
aI0
aI0
aI4
aa(lp1509
I0
aI1
aI0
aI1
aI1
aI0
aI1
aI0
aI0
aI0
aI0
aI0
aI4
aa(lp1510
I0
aI1
aI0
aI1
aI1
aI1
aI3
aI0
aI0
aI0
aI0
aI0
aI4
aa(lp1511
I0
aI0
aI0
aI1
aI1
aI0
aI1
aI0
aI0
aI0
aI0
aI2
aI4
aa(lp1512
I0
aI1
aI0
aI3
aI1
aI0
aI3
aI0
aI0
aI2
aI0
aI0
aI4
aa(lp1513
I0
aI1
aI0
aI1
aI0
aI0
aI3
aI1
aI0
aI0
aI0
aI0
aI4
aa(lp1514
I0
aI1
aI0
aI1
aI1
aI0
aI1
aI1
aI0
aI0
aI0
aI2
aI4
aa(lp1515
I0
aI1
aI0
aI1
aI1
aI0
aI1
aI1
aI0
aI0
aI0
aI2
aI4
aa(lp1516
I0
aI1
aI0
aI1
aI1
aI0
aI1
aI1
aI0
aI0
aI0
aI0
aI4
aa(lp1517
I0
aI1
aI0
aI1
aI1
aI0
aI1
aI0
aI0
aI2
aI0
aI0
aI4
aa(lp1518
I0
aI1
aI0
aI1
aI0
aI0
aI1
aI1
aI0
aI0
aI0
aI0
aI4
aa(lp1519
I3
aI4
aI0
aI1
aI1
aI3
aI3
aI1
aI0
aI1
aI0
aI0
aI4
aa(lp1520
I0
aI1
aI0
aI4
aI1
aI0
aI1
aI1
aI0
aI0
aI0
aI2
aI4
aa(lp1521
I1
aI4
aI0
aI3
aI1
aI0
aI3
aI0
aI0
aI0
aI0
aI0
aI4
aa(lp1522
I0
aI0
aI0
aI1
aI1
aI0
aI1
aI0
aI0
aI2
aI0
aI0
aI4
aa(lp1523
I0
aI0
aI0
aI1
aI1
aI0
aI3
aI0
aI0
aI0
aI0
aI0
aI4
aa(lp1524
I0
aI1
aI0
aI1
aI1
aI0
aI2
aI1
aI0
aI0
aI0
aI0
aI4
aa(lp1525
I0
aI1
aI0
aI1
aI1
aI0
aI3
aI1
aI0
aI0
aI0
aI2
aI4
aa(lp1526
I0
aI0
aI0
aI1
aI1
aI0
aI3
aI0
aI0
aI2
aI0
aI0
aI4
aa(lp1527
I1
aI4
aI0
aI1
aI1
aI0
aI1
aI0
aI0
aI2
aI0
aI0
aI4
aa(lp1528
I0
aI1
aI0
aI1
aI1
aI0
aI3
aI1
aI0
aI0
aI0
aI0
aI4
aa(lp1529
I0
aI1
aI0
aI2
aI1
aI0
aI1
aI1
aI0
aI2
aI0
aI0
aI4
aa(lp1530
I0
aI1
aI0
aI1
aI1
aI1
aI3
aI0
aI0
aI2
aI0
aI0
aI4
aa(lp1531
I0
aI0
aI0
aI0
aI1
aI0
aI1
aI0
aI0
aI0
aI0
aI0
aI4
aa(lp1532
I1
aI4
aI0
aI1
aI1
aI0
aI3
aI1
aI0
aI0
aI0
aI0
aI4
aa(lp1533
I0
aI0
aI0
aI1
aI1
aI0
aI1
aI0
aI0
aI0
aI0
aI0
aI4
aa(lp1534
I0
aI1
aI0
aI1
aI1
aI0
aI1
aI0
aI0
aI0
aI0
aI0
aI4
aa(lp1535
I0
aI0
aI0
aI1
aI1
aI0
aI1
aI1
aI0
aI0
aI0
aI0
aI4
aa(lp1536
I0
aI1
aI0
aI1
aI1
aI0
aI1
aI1
aI0
aI0
aI0
aI0
aI4
aa(lp1537
I0
aI0
aI0
aI0
aI0
aI0
aI3
aI0
aI0
aI0
aI0
aI2
aI4
aa(lp1538
I0
aI1
aI0
aI1
aI1
aI1
aI3
aI0
aI0
aI2
aI0
aI0
aI4
aa(lp1539
I0
aI0
aI0
aI1
aI1
aI0
aI1
aI0
aI0
aI0
aI0
aI2
aI4
aa(lp1540
I0
aI1
aI0
aI1
aI1
aI0
aI1
aI0
aI0
aI0
aI0
aI0
aI4
aa(lp1541
I0
aI0
aI0
aI1
aI1
aI0
aI1
aI1
aI0
aI0
aI0
aI0
aI4
aa(lp1542
I0
aI1
aI0
aI3
aI1
aI0
aI1
aI0
aI0
aI0
aI0
aI0
aI4
aa(lp1543
I0
aI1
aI0
aI1
aI1
aI0
aI2
aI1
aI0
aI0
aI0
aI0
aI4
aa(lp1544
I0
aI1
aI0
aI1
aI1
aI0
aI3
aI0
aI0
aI0
aI0
aI0
aI4
aa(lp1545
I0
aI0
aI0
aI1
aI0
aI0
aI1
aI1
aI0
aI0
aI0
aI0
aI4
aa(lp1546
I0
aI1
aI0
aI1
aI1
aI0
aI1
aI1
aI0
aI0
aI2
aI2
aI4
aa(lp1547
I0
aI1
aI0
aI1
aI1
aI0
aI3
aI0
aI0
aI0
aI0
aI0
aI4
aa(lp1548
I3
aI4
aI0
aI1
aI1
aI0
aI1
aI0
aI0
aI0
aI0
aI0
aI4
aa(lp1549
I0
aI1
aI0
aI1
aI1
aI0
aI1
aI1
aI0
aI0
aI0
aI2
aI4
aa(lp1550
I0
aI1
aI0
aI1
aI1
aI0
aI1
aI0
aI0
aI0
aI0
aI0
aI4
aa(lp1551
I0
aI0
aI0
aI3
aI1
aI0
aI0
aI1
aI0
aI2
aI0
aI0
aI4
aa(lp1552
I0
aI1
aI0
aI1
aI0
aI0
aI1
aI1
aI0
aI0
aI2
aI2
aI4
aa(lp1553
I0
aI1
aI0
aI1
aI1
aI0
aI1
aI1
aI0
aI2
aI0
aI0
aI4
aa(lp1554
I0
aI1
aI0
aI3
aI1
aI0
aI1
aI1
aI0
aI0
aI0
aI2
aI4
aa(lp1555
I0
aI1
aI0
aI1
aI1
aI0
aI2
aI1
aI0
aI2
aI0
aI0
aI4
aa(lp1556
I0
aI1
aI0
aI1
aI1
aI0
aI1
aI0
aI0
aI2
aI0
aI0
aI4
aa(lp1557
I0
aI1
aI0
aI1
aI1
aI0
aI1
aI1
aI0
aI2
aI0
aI0
aI4
aa(lp1558
I0
aI1
aI0
aI1
aI0
aI2
aI3
aI1
aI0
aI0
aI0
aI0
aI4
aa(lp1559
I0
aI1
aI0
aI1
aI1
aI0
aI1
aI0
aI0
aI0
aI0
aI0
aI4
aa(lp1560
I0
aI1
aI0
aI1
aI1
aI0
aI2
aI1
aI0
aI0
aI0
aI2
aI4
aa(lp1561
I0
aI1
aI0
aI1
aI1
aI1
aI3
aI0
aI0
aI0
aI0
aI0
aI4
aa(lp1562
I0
aI1
aI0
aI1
aI1
aI0
aI1
aI0
aI0
aI0
aI0
aI0
aI4
aa(lp1563
I0
aI1
aI0
aI1
aI1
aI0
aI1
aI1
aI0
aI0
aI0
aI2
aI4
aa(lp1564
I0
aI1
aI0
aI1
aI1
aI1
aI3
aI1
aI0
aI0
aI0
aI2
aI4
aa(lp1565
I0
aI1
aI0
aI1
aI1
aI0
aI1
aI0
aI0
aI0
aI0
aI0
aI4
aa(lp1566
I0
aI1
aI0
aI1
aI1
aI0
aI1
aI1
aI0
aI0
aI0
aI0
aI4
aa(lp1567
I0
aI1
aI0
aI4
aI0
aI0
aI3
aI1
aI0
aI2
aI0
aI0
aI4
aa(lp1568
I1
aI4
aI0
aI1
aI1
aI1
aI3
aI1
aI0
aI0
aI0
aI2
aI4
aa(lp1569
I0
aI1
aI0
aI1
aI1
aI0
aI1
aI1
aI0
aI0
aI0
aI0
aI4
aa(lp1570
I0
aI4
aI0
aI4
aI0
aI0
aI1
aI0
aI0
aI2
aI0
aI2
aI4
aa(lp1571
I0
aI1
aI0
aI1
aI1
aI0
aI1
aI0
aI0
aI0
aI0
aI0
aI4
aa(lp1572
I0
aI1
aI0
aI1
aI0
aI0
aI3
aI0
aI0
aI0
aI0
aI0
aI4
aa(lp1573
I0
aI2
aI0
aI1
aI0
aI0
aI1
aI0
aI0
aI0
aI0
aI0
aI4
aa(lp1574
I0
aI1
aI0
aI1
aI1
aI0
aI1
aI1
aI0
aI2
aI0
aI0
aI4
aa(lp1575
I0
aI0
aI3
aI4
aI0
aI0
aI3
aI0
aI0
aI0
aI0
aI0
aI4
aa(lp1576
I0
aI1
aI0
aI1
aI1
aI0
aI1
aI1
aI0
aI2
aI0
aI0
aI4
aa(lp1577
I0
aI1
aI0
aI1
aI1
aI0
aI1
aI0
aI0
aI0
aI0
aI0
aI4
aa(lp1578
I0
aI1
aI0
aI1
aI1
aI0
aI1
aI0
aI0
aI2
aI0
aI0
aI4
aa(lp1579
I0
aI1
aI0
aI1
aI1
aI0
aI1
aI0
aI0
aI0
aI0
aI0
aI4
aa(lp1580
I0
aI0
aI0
aI4
aI1
aI0
aI1
aI1
aI0
aI0
aI2
aI2
aI4
aa(lp1581
I0
aI1
aI0
aI1
aI1
aI1
aI3
aI1
aI0
aI0
aI0
aI2
aI4
aa(lp1582
I0
aI1
aI0
aI3
aI1
aI0
aI1
aI1
aI0
aI0
aI0
aI2
aI4
aa(lp1583
I0
aI4
aI0
aI2
aI1
aI0
aI1
aI0
aI0
aI2
aI0
aI0
aI4
aa(lp1584
I0
aI0
aI0
aI1
aI1
aI0
aI1
aI0
aI0
aI0
aI0
aI0
aI4
aa(lp1585
I0
aI1
aI0
aI1
aI1
aI4
aI3
aI0
aI0
aI1
aI2
aI2
aI4
aa(lp1586
I0
aI0
aI1
aI1
aI1
aI0
aI3
aI0
aI0
aI0
aI0
aI0
aI4
aa(lp1587
I0
aI1
aI0
aI1
aI1
aI0
aI1
aI0
aI0
aI0
aI0
aI0
aI4
aa(lp1588
I0
aI1
aI0
aI1
aI1
aI1
aI3
aI0
aI0
aI0
aI0
aI0
aI4
aa(lp1589
I0
aI0
aI0
aI1
aI1
aI0
aI1
aI0
aI0
aI0
aI0
aI2
aI4
aa(lp1590
I0
aI1
aI0
aI3
aI1
aI0
aI3
aI0
aI0
aI2
aI0
aI0
aI4
aa(lp1591
I0
aI1
aI0
aI1
aI0
aI0
aI3
aI1
aI0
aI0
aI0
aI0
aI4
aa(lp1592
I0
aI1
aI0
aI1
aI1
aI0
aI2
aI1
aI0
aI0
aI0
aI0
aI4
aa(lp1593
I0
aI1
aI0
aI1
aI1
aI0
aI1
aI0
aI0
aI2
aI0
aI0
aI4
aa(lp1594
I0
aI1
aI0
aI1
aI1
aI0
aI1
aI0
aI0
aI2
aI2
aI0
aI4
aa(lp1595
I0
aI0
aI0
aI1
aI1
aI0
aI1
aI0
aI0
aI1
aI0
aI0
aI4
aa(lp1596
I5
aI1
aI0
aI1
aI1
aI0
aI1
aI0
aI0
aI0
aI0
aI1
aI4
aa(lp1597
I0
aI0
aI0
aI1
aI1
aI0
aI3
aI1
aI0
aI0
aI0
aI0
aI4
aa(lp1598
I0
aI0
aI0
aI1
aI1
aI0
aI1
aI1
aI0
aI0
aI0
aI0
aI4
aa(lp1599
I0
aI1
aI0
aI1
aI1
aI0
aI3
aI0
aI0
aI2
aI0
aI0
aI4
aa(lp1600
I0
aI1
aI0
aI1
aI1
aI0
aI2
aI1
aI0
aI1
aI1
aI1
aI4
aa(lp1601
I0
aI1
aI0
aI1
aI1
aI0
aI1
aI1
aI0
aI1
aI0
aI0
aI4
aa(lp1602
I0
aI0
aI0
aI1
aI1
aI0
aI1
aI0
aI0
aI0
aI0
aI0
aI4
aa(lp1603
I0
aI1
aI0
aI1
aI1
aI0
aI1
aI1
aI0
aI0
aI0
aI0
aI4
aa(lp1604
I0
aI1
aI0
aI1
aI1
aI0
aI1
aI0
aI0
aI0
aI0
aI0
aI4
aa(lp1605
I0
aI1
aI0
aI1
aI1
aI0
aI1
aI0
aI0
aI2
aI0
aI0
aI4
aa(lp1606
I0
aI0
aI0
aI0
aI1
aI0
aI3
aI0
aI0
aI0
aI0
aI0
aI4
aa(lp1607
I0
aI1
aI0
aI1
aI1
aI0
aI1
aI1
aI0
aI0
aI0
aI1
aI4
aa(lp1608
I0
aI0
aI0
aI0
aI1
aI0
aI1
aI1
aI0
aI1
aI0
aI0
aI4
aa(lp1609
I0
aI1
aI0
aI1
aI1
aI0
aI1
aI1
aI0
aI0
aI0
aI0
aI4
aa(lp1610
I0
aI0
aI0
aI1
aI1
aI0
aI1
aI0
aI0
aI2
aI0
aI0
aI4
aa(lp1611
I0
aI0
aI0
aI0
aI1
aI0
aI1
aI1
aI0
aI0
aI0
aI1
aI4
aa(lp1612
I0
aI1
aI0
aI1
aI1
aI0
aI3
aI0
aI0
aI0
aI0
aI0
aI4
aa(lp1613
I0
aI0
aI0
aI3
aI1
aI0
aI1
aI0
aI0
aI0
aI0
aI0
aI4
aa(lp1614
I0
aI1
aI0
aI1
aI1
aI0
aI1
aI1
aI0
aI0
aI0
aI2
aI4
aa(lp1615
I0
aI1
aI0
aI1
aI1
aI0
aI1
aI1
aI0
aI0
aI2
aI2
aI4
aa(lp1616
I0
aI1
aI0
aI1
aI0
aI0
aI1
aI0
aI0
aI2
aI0
aI0
aI4
aa(lp1617
I0
aI1
aI0
aI1
aI0
aI0
aI1
aI1
aI0
aI2
aI0
aI0
aI4
aa(lp1618
I0
aI1
aI0
aI1
aI1
aI0
aI1
aI1
aI0
aI0
aI0
aI0
aI4
aa(lp1619
I0
aI1
aI0
aI1
aI1
aI0
aI3
aI0
aI0
aI2
aI0
aI0
aI4
aa(lp1620
I0
aI1
aI0
aI1
aI1
aI1
aI3
aI1
aI0
aI0
aI0
aI0
aI4
aa(lp1621
I0
aI1
aI0
aI1
aI1
aI1
aI3
aI1
aI0
aI0
aI0
aI0
aI4
aa(lp1622
I1
aI4
aI0
aI1
aI1
aI0
aI1
aI0
aI0
aI0
aI0
aI0
aI4
aa(lp1623
I0
aI1
aI0
aI1
aI1
aI0
aI1
aI0
aI0
aI0
aI0
aI0
aI4
aa(lp1624
I0
aI1
aI0
aI1
aI0
aI0
aI1
aI0
aI0
aI2
aI0
aI0
aI4
aa(lp1625
I0
aI1
aI0
aI1
aI1
aI3
aI3
aI1
aI0
aI0
aI0
aI0
aI4
aa(lp1626
I0
aI0
aI0
aI1
aI1
aI1
aI3
aI0
aI0
aI0
aI0
aI0
aI4
aa(lp1627
I0
aI1
aI0
aI1
aI1
aI0
aI1
aI0
aI0
aI0
aI0
aI0
aI4
aa(lp1628
I0
aI1
aI0
aI1
aI1
aI0
aI1
aI1
aI0
aI0
aI2
aI2
aI4
aa(lp1629
I0
aI2
aI0
aI1
aI1
aI0
aI1
aI0
aI0
aI2
aI0
aI0
aI4
aa(lp1630
I0
aI1
aI1
aI5
aI1
aI0
aI3
aI0
aI0
aI2
aI0
aI0
aI4
aa(lp1631
I0
aI0
aI0
aI1
aI1
aI0
aI1
aI0
aI0
aI2
aI0
aI0
aI4
aa(lp1632
I0
aI1
aI1
aI5
aI0
aI0
aI2
aI1
aI0
aI0
aI0
aI0
aI4
aa(lp1633
I0
aI1
aI0
aI4
aI1
aI0
aI3
aI1
aI0
aI0
aI0
aI0
aI4
aa(lp1634
I0
aI0
aI0
aI1
aI1
aI0
aI1
aI0
aI0
aI0
aI0
aI0
aI4
aa(lp1635
I0
aI1
aI0
aI1
aI1
aI0
aI1
aI1
aI0
aI0
aI0
aI0
aI4
aa(lp1636
I0
aI1
aI0
aI1
aI1
aI0
aI1
aI1
aI0
aI0
aI0
aI2
aI4
aa(lp1637
I0
aI0
aI0
aI4
aI1
aI0
aI1
aI1
aI0
aI0
aI0
aI2
aI4
aa(lp1638
I0
aI1
aI0
aI1
aI1
aI0
aI1
aI0
aI0
aI0
aI0
aI2
aI4
aa(lp1639
I0
aI1
aI0
aI4
aI0
aI0
aI0
aI1
aI0
aI2
aI0
aI0
aI4
aa(lp1640
I0
aI1
aI0
aI1
aI1
aI0
aI1
aI0
aI0
aI0
aI0
aI0
aI4
aa(lp1641
I0
aI1
aI0
aI1
aI1
aI0
aI1
aI1
aI0
aI2
aI0
aI0
aI4
aa(lp1642
I0
aI1
aI0
aI3
aI1
aI0
aI3
aI0
aI0
aI0
aI0
aI0
aI4
aa(lp1643
I0
aI1
aI0
aI1
aI1
aI0
aI1
aI0
aI0
aI0
aI0
aI0
aI4
aa(lp1644
I0
aI1
aI0
aI1
aI1
aI0
aI1
aI0
aI0
aI0
aI0
aI0
aI4
aa(lp1645
I0
aI1
aI0
aI1
aI1
aI0
aI1
aI1
aI0
aI0
aI0
aI0
aI4
aa(lp1646
I0
aI1
aI0
aI1
aI1
aI0
aI1
aI0
aI0
aI2
aI0
aI0
aI4
aa(lp1647
I0
aI2
aI0
aI1
aI1
aI0
aI2
aI1
aI0
aI0
aI0
aI0
aI4
aa(lp1648
I0
aI1
aI0
aI4
aI0
aI0
aI3
aI0
aI0
aI0
aI0
aI0
aI4
aa(lp1649
I0
aI1
aI0
aI1
aI1
aI0
aI2
aI1
aI0
aI0
aI0
aI2
aI4
aa(lp1650
I0
aI1
aI0
aI1
aI1
aI0
aI2
aI1
aI0
aI0
aI0
aI0
aI4
aa(lp1651
I0
aI1
aI0
aI1
aI1
aI0
aI3
aI0
aI0
aI0
aI0
aI0
aI4
aa(lp1652
I0
aI1
aI0
aI1
aI1
aI0
aI1
aI0
aI0
aI0
aI0
aI0
aI4
aa(lp1653
I0
aI1
aI0
aI1
aI1
aI0
aI1
aI1
aI0
aI0
aI0
aI0
aI4
aa(lp1654
I0
aI1
aI0
aI1
aI1
aI0
aI2
aI1
aI0
aI2
aI0
aI0
aI4
aa(lp1655
I0
aI1
aI0
aI1
aI1
aI0
aI1
aI0
aI0
aI0
aI0
aI0
aI4
aa(lp1656
I0
aI1
aI0
aI1
aI0
aI0
aI1
aI1
aI0
aI0
aI0
aI0
aI4
aa(lp1657
I0
aI1
aI0
aI1
aI1
aI0
aI1
aI0
aI0
aI0
aI0
aI0
aI4
aa(lp1658
I0
aI1
aI0
aI1
aI1
aI0
aI2
aI1
aI0
aI0
aI0
aI0
aI4
aa(lp1659
I0
aI1
aI0
aI1
aI1
aI0
aI1
aI1
aI0
aI0
aI0
aI0
aI4
aa(lp1660
I0
aI0
aI0
aI1
aI1
aI0
aI1
aI0
aI0
aI0
aI0
aI0
aI4
aa(lp1661
I0
aI1
aI0
aI1
aI1
aI0
aI1
aI0
aI0
aI2
aI0
aI0
aI4
aa(lp1662
I0
aI1
aI0
aI1
aI0
aI0
aI1
aI0
aI0
aI0
aI0
aI2
aI4
aa(lp1663
I0
aI1
aI0
aI1
aI1
aI0
aI1
aI0
aI0
aI2
aI0
aI0
aI4
aa(lp1664
I0
aI4
aI1
aI1
aI0
aI0
aI3
aI0
aI0
aI0
aI0
aI0
aI4
aa(lp1665
I0
aI1
aI0
aI1
aI1
aI1
aI3
aI1
aI0
aI0
aI0
aI2
aI4
aa(lp1666
I0
aI1
aI0
aI1
aI1
aI0
aI3
aI0
aI0
aI0
aI0
aI0
aI4
aa(lp1667
I0
aI1
aI0
aI1
aI1
aI1
aI3
aI1
aI0
aI1
aI0
aI0
aI4
aa(lp1668
I0
aI0
aI0
aI1
aI1
aI0
aI3
aI0
aI0
aI0
aI0
aI0
aI4
aa(lp1669
I1
aI4
aI0
aI1
aI0
aI1
aI3
aI0
aI0
aI0
aI0
aI0
aI4
aa(lp1670
I0
aI1
aI0
aI1
aI1
aI0
aI1
aI0
aI0
aI0
aI0
aI0
aI4
aa(lp1671
I0
aI0
aI0
aI1
aI1
aI0
aI1
aI0
aI0
aI0
aI0
aI2
aI4
aa(lp1672
I0
aI0
aI0
aI1
aI1
aI1
aI3
aI1
aI0
aI0
aI2
aI0
aI4
aa(lp1673
I0
aI1
aI0
aI1
aI1
aI0
aI1
aI0
aI0
aI0
aI0
aI0
aI4
aa(lp1674
I0
aI1
aI0
aI1
aI0
aI1
aI3
aI1
aI0
aI0
aI0
aI1
aI4
aa(lp1675
I0
aI1
aI0
aI1
aI1
aI1
aI3
aI1
aI0
aI0
aI0
aI0
aI4
aa(lp1676
I0
aI1
aI0
aI1
aI1
aI0
aI2
aI1
aI0
aI0
aI2
aI2
aI4
aa(lp1677
I0
aI1
aI0
aI1
aI1
aI1
aI3
aI1
aI0
aI0
aI0
aI0
aI4
aa(lp1678
I0
aI1
aI0
aI1
aI1
aI0
aI1
aI0
aI0
aI0
aI0
aI0
aI4
aa(lp1679
I1
aI4
aI1
aI5
aI1
aI0
aI3
aI0
aI0
aI0
aI0
aI0
aI4
aa(lp1680
I0
aI0
aI0
aI1
aI1
aI0
aI3
aI0
aI0
aI2
aI0
aI0
aI4
aa(lp1681
I0
aI4
aI0
aI1
aI1
aI0
aI1
aI1
aI0
aI0
aI0
aI0
aI4
aa(lp1682
I0
aI1
aI0
aI1
aI0
aI0
aI3
aI1
aI0
aI0
aI0
aI0
aI4
aa(lp1683
I0
aI1
aI0
aI1
aI1
aI0
aI1
aI0
aI0
aI0
aI0
aI0
aI4
aa(lp1684
I0
aI1
aI0
aI1
aI1
aI0
aI1
aI1
aI0
aI0
aI0
aI0
aI4
aa(lp1685
I0
aI1
aI0
aI1
aI0
aI0
aI1
aI0
aI0
aI0
aI0
aI0
aI4
aa(lp1686
I0
aI1
aI1
aI5
aI1
aI0
aI3
aI0
aI0
aI0
aI0
aI0
aI4
aa(lp1687
I0
aI1
aI0
aI1
aI0
aI0
aI1
aI0
aI0
aI2
aI0
aI0
aI4
aa(lp1688
I0
aI1
aI0
aI1
aI1
aI0
aI2
aI1
aI0
aI0
aI0
aI1
aI4
aa(lp1689
I0
aI0
aI0
aI1
aI1
aI0
aI3
aI0
aI0
aI0
aI0
aI0
aI4
aa(lp1690
I0
aI1
aI0
aI1
aI1
aI1
aI3
aI1
aI0
aI0
aI0
aI2
aI4
aa(lp1691
I0
aI1
aI0
aI1
aI1
aI0
aI1
aI1
aI0
aI0
aI0
aI2
aI4
aa(lp1692
I0
aI0
aI0
aI1
aI1
aI0
aI3
aI0
aI0
aI0
aI0
aI0
aI4
aa(lp1693
I0
aI1
aI0
aI1
aI1
aI0
aI2
aI1
aI0
aI1
aI0
aI0
aI4
aa(lp1694
I0
aI1
aI0
aI1
aI1
aI0
aI1
aI1
aI0
aI0
aI0
aI2
aI4
aa(lp1695
I0
aI1
aI0
aI1
aI1
aI0
aI1
aI1
aI0
aI0
aI0
aI2
aI4
aa(lp1696
I0
aI0
aI0
aI1
aI1
aI0
aI1
aI1
aI0
aI0
aI0
aI0
aI4
aa(lp1697
I0
aI0
aI0
aI1
aI1
aI0
aI3
aI0
aI0
aI0
aI0
aI0
aI4
aa(lp1698
I0
aI0
aI0
aI1
aI1
aI0
aI1
aI0
aI0
aI0
aI0
aI0
aI4
aa(lp1699
I1
aI4
aI0
aI3
aI1
aI1
aI3
aI0
aI0
aI0
aI0
aI0
aI4
aa(lp1700
I0
aI1
aI0
aI3
aI1
aI0
aI1
aI0
aI0
aI2
aI0
aI0
aI4
aa(lp1701
I0
aI1
aI0
aI4
aI1
aI0
aI3
aI0
aI0
aI0
aI0
aI0
aI4
aa(lp1702
I0
aI1
aI0
aI1
aI1
aI0
aI2
aI1
aI0
aI2
aI0
aI0
aI4
aa(lp1703
I0
aI1
aI0
aI1
aI1
aI0
aI1
aI1
aI0
aI0
aI0
aI0
aI4
aa(lp1704
I0
aI1
aI0
aI1
aI0
aI0
aI1
aI0
aI0
aI2
aI0
aI0
aI4
aa(lp1705
I0
aI1
aI0
aI1
aI1
aI0
aI2
aI1
aI0
aI0
aI0
aI0
aI4
aa(lp1706
I0
aI1
aI0
aI1
aI1
aI0
aI1
aI1
aI0
aI1
aI2
aI2
aI4
aa(lp1707
I2
aI1
aI0
aI1
aI1
aI2
aI3
aI1
aI0
aI0
aI0
aI0
aI4
aa(lp1708
I0
aI0
aI0
aI1
aI1
aI0
aI1
aI0
aI0
aI2
aI0
aI0
aI4
aa(lp1709
I0
aI1
aI0
aI1
aI1
aI0
aI1
aI1
aI0
aI0
aI0
aI0
aI4
aa(lp1710
I0
aI1
aI0
aI1
aI1
aI0
aI1
aI0
aI0
aI0
aI0
aI0
aI4
aa(lp1711
I0
aI0
aI1
aI5
aI1
aI0
aI1
aI1
aI0
aI0
aI0
aI0
aI4
aa(lp1712
I0
aI0
aI1
aI1
aI1
aI0
aI2
aI1
aI0
aI0
aI0
aI0
aI4
aa(lp1713
I0
aI0
aI0
aI1
aI0
aI0
aI1
aI0
aI0
aI2
aI0
aI0
aI4
aa(lp1714
I0
aI0
aI0
aI1
aI1
aI0
aI1
aI0
aI0
aI2
aI0
aI0
aI4
aa(lp1715
I0
aI0
aI0
aI3
aI1
aI0
aI2
aI1
aI0
aI0
aI0
aI0
aI4
aa(lp1716
I0
aI0
aI0
aI1
aI1
aI0
aI1
aI0
aI0
aI0
aI0
aI0
aI4
aa(lp1717
I0
aI1
aI0
aI1
aI0
aI0
aI1
aI0
aI0
aI0
aI0
aI0
aI4
aa(lp1718
I0
aI1
aI0
aI1
aI1
aI0
aI1
aI0
aI0
aI2
aI0
aI0
aI4
aa(lp1719
I2
aI4
aI0
aI1
aI0
aI0
aI1
aI0
aI0
aI0
aI0
aI2
aI4
aa(lp1720
I0
aI1
aI0
aI1
aI1
aI0
aI1
aI0
aI0
aI2
aI0
aI0
aI4
aa(lp1721
I0
aI1
aI0
aI1
aI0
aI0
aI1
aI1
aI0
aI0
aI0
aI0
aI4
aa(lp1722
I0
aI1
aI0
aI1
aI1
aI0
aI1
aI0
aI0
aI0
aI0
aI0
aI4
aa(lp1723
I0
aI1
aI0
aI1
aI1
aI0
aI1
aI1
aI0
aI0
aI0
aI0
aI4
aa(lp1724
I0
aI1
aI0
aI1
aI1
aI0
aI1
aI0
aI0
aI0
aI0
aI0
aI4
aa(lp1725
I0
aI1
aI0
aI1
aI1
aI0
aI1
aI0
aI0
aI0
aI0
aI0
aI4
aa(lp1726
I0
aI0
aI0
aI3
aI0
aI0
aI3
aI0
aI0
aI0
aI0
aI0
aI4
aa(lp1727
I0
aI1
aI0
aI1
aI1
aI0
aI1
aI0
aI0
aI2
aI0
aI0
aI4
aa(lp1728
I0
aI1
aI0
aI1
aI1
aI1
aI3
aI1
aI0
aI0
aI0
aI2
aI4
aa(lp1729
I0
aI1
aI0
aI1
aI1
aI0
aI1
aI1
aI0
aI0
aI0
aI0
aI4
aa(lp1730
I0
aI1
aI0
aI1
aI1
aI0
aI1
aI1
aI0
aI0
aI2
aI2
aI4
aa(lp1731
I0
aI1
aI0
aI1
aI0
aI0
aI1
aI0
aI0
aI0
aI0
aI0
aI4
aa(lp1732
I0
aI1
aI0
aI1
aI1
aI0
aI1
aI0
aI0
aI0
aI0
aI2
aI4
aa(lp1733
I0
aI1
aI0
aI1
aI1
aI0
aI1
aI1
aI0
aI2
aI0
aI0
aI4
aa(lp1734
I0
aI1
aI0
aI1
aI1
aI0
aI3
aI0
aI0
aI2
aI0
aI0
aI4
aa(lp1735
I0
aI1
aI0
aI1
aI0
aI1
aI3
aI0
aI0
aI0
aI0
aI0
aI4
aa(lp1736
I0
aI1
aI0
aI1
aI1
aI1
aI3
aI0
aI0
aI0
aI0
aI2
aI4
aa(lp1737
I2
aI4
aI1
aI5
aI1
aI0
aI3
aI0
aI0
aI0
aI0
aI0
aI4
aa(lp1738
I0
aI1
aI0
aI1
aI1
aI0
aI1
aI1
aI0
aI0
aI0
aI2
aI4
aa(lp1739
I0
aI1
aI0
aI1
aI1
aI1
aI3
aI1
aI0
aI0
aI0
aI0
aI4
aa(lp1740
I0
aI1
aI0
aI1
aI1
aI1
aI3
aI0
aI0
aI0
aI0
aI0
aI4
aa(lp1741
I0
aI1
aI0
aI1
aI1
aI0
aI3
aI0
aI0
aI0
aI0
aI0
aI4
aa(lp1742
I0
aI2
aI0
aI1
aI1
aI1
aI3
aI0
aI0
aI2
aI0
aI0
aI4
aa(lp1743
I0
aI1
aI0
aI1
aI1
aI0
aI1
aI0
aI0
aI0
aI0
aI0
aI4
aa(lp1744
I0
aI1
aI0
aI1
aI1
aI0
aI2
aI1
aI0
aI0
aI0
aI0
aI4
aa(lp1745
I0
aI1
aI0
aI1
aI1
aI0
aI1
aI0
aI0
aI2
aI0
aI0
aI4
aa(lp1746
I1
aI4
aI0
aI0
aI0
aI0
aI1
aI0
aI0
aI2
aI0
aI0
aI4
aa(lp1747
I0
aI1
aI0
aI1
aI0
aI4
aI3
aI0
aI0
aI2
aI2
aI2
aI4
aa(lp1748
I0
aI1
aI0
aI1
aI1
aI1
aI3
aI0
aI0
aI0
aI0
aI0
aI4
aa(lp1749
I0
aI1
aI0
aI4
aI0
aI0
aI1
aI0
aI0
aI0
aI0
aI0
aI4
aa(lp1750
I0
aI0
aI0
aI1
aI1
aI0
aI1
aI1
aI0
aI0
aI0
aI2
aI4
aa(lp1751
I0
aI4
aI0
aI2
aI1
aI0
aI3
aI0
aI0
aI0
aI0
aI0
aI4
aa(lp1752
I0
aI1
aI0
aI1
aI0
aI0
aI1
aI1
aI0
aI0
aI0
aI0
aI4
aa(lp1753
I0
aI1
aI0
aI1
aI1
aI0
aI1
aI0
aI0
aI0
aI0
aI0
aI4
aa(lp1754
I0
aI1
aI0
aI1
aI1
aI0
aI1
aI1
aI0
aI0
aI0
aI0
aI4
aa(lp1755
I1
aI4
aI0
aI1
aI1
aI0
aI1
aI0
aI0
aI0
aI0
aI0
aI4
aa(lp1756
I0
aI1
aI0
aI4
aI1
aI0
aI1
aI0
aI0
aI0
aI0
aI0
aI4
aa(lp1757
I0
aI1
aI0
aI1
aI1
aI0
aI1
aI0
aI0
aI0
aI0
aI0
aI4
aa(lp1758
I0
aI1
aI0
aI4
aI1
aI0
aI3
aI0
aI0
aI0
aI0
aI2
aI4
aa(lp1759
I0
aI0
aI0
aI3
aI0
aI0
aI0
aI1
aI0
aI0
aI0
aI0
aI4
aa(lp1760
I0
aI1
aI0
aI4
aI1
aI0
aI1
aI0
aI0
aI0
aI0
aI0
aI4
aa(lp1761
I0
aI1
aI0
aI1
aI0
aI0
aI3
aI0
aI0
aI0
aI0
aI0
aI4
aa(lp1762
I0
aI0
aI0
aI1
aI1
aI0
aI3
aI0
aI0
aI0
aI0
aI2
aI4
aa(lp1763
I0
aI1
aI0
aI1
aI1
aI1
aI3
aI0
aI0
aI2
aI0
aI0
aI4
aa(lp1764
I0
aI1
aI0
aI1
aI1
aI0
aI1
aI1
aI0
aI0
aI0
aI0
aI4
aa(lp1765
I0
aI1
aI0
aI4
aI1
aI0
aI1
aI0
aI0
aI0
aI0
aI0
aI4
aa(lp1766
I1
aI0
aI1
aI0
aI1
aI1
aI0
aI1
aI1
aI0
aI2
aI0
aI4
aa(lp1767
I0
aI0
aI0
aI0
aI1
aI0
aI1
aI1
aI0
aI0
aI0
aI0
aI4
aa(lp1768
I0
aI0
aI0
aI1
aI0
aI0
aI3
aI1
aI0
aI0
aI0
aI0
aI4
aa(lp1769
I5
aI0
aI0
aI1
aI1
aI0
aI3
aI1
aI0
aI0
aI0
aI0
aI4
aa(lp1770
I0
aI1
aI0
aI1
aI1
aI0
aI1
aI0
aI0
aI0
aI0
aI0
aI4
aa(lp1771
I5
aI1
aI0
aI1
aI1
aI0
aI1
aI1
aI0
aI0
aI0
aI0
aI4
aa(lp1772
I0
aI4
aI0
aI1
aI1
aI3
aI3
aI0
aI0
aI2
aI0
aI0
aI4
aa(lp1773
I0
aI1
aI0
aI1
aI1
aI0
aI1
aI0
aI0
aI0
aI0
aI0
aI4
aa(lp1774
I0
aI1
aI0
aI3
aI1
aI0
aI1
aI1
aI0
aI0
aI0
aI0
aI4
aa(lp1775
I0
aI0
aI0
aI1
aI1
aI0
aI1
aI1
aI0
aI1
aI0
aI0
aI4
aa(lp1776
I0
aI1
aI0
aI1
aI1
aI0
aI1
aI1
aI0
aI0
aI0
aI0
aI4
aa(lp1777
I0
aI1
aI0
aI1
aI1
aI0
aI1
aI0
aI0
aI0
aI0
aI0
aI4
aa(lp1778
I1
aI4
aI0
aI5
aI1
aI0
aI1
aI0
aI0
aI0
aI0
aI0
aI4
aa(lp1779
I0
aI1
aI0
aI0
aI0
aI0
aI1
aI0
aI0
aI0
aI0
aI0
aI4
aa(lp1780
I0
aI0
aI0
aI1
aI1
aI0
aI1
aI0
aI0
aI0
aI0
aI0
aI4
aa(lp1781
I0
aI1
aI0
aI1
aI1
aI0
aI1
aI0
aI0
aI0
aI0
aI0
aI4
aa(lp1782
I0
aI1
aI0
aI1
aI1
aI0
aI1
aI0
aI0
aI2
aI0
aI0
aI4
aa(lp1783
I0
aI0
aI0
aI0
aI1
aI0
aI3
aI0
aI0
aI2
aI0
aI0
aI4
aa(lp1784
I0
aI1
aI0
aI3
aI1
aI0
aI1
aI1
aI0
aI0
aI0
aI0
aI4
aa(lp1785
I0
aI1
aI0
aI1
aI1
aI0
aI1
aI1
aI0
aI0
aI0
aI0
aI4
aa(lp1786
I0
aI1
aI0
aI0
aI0
aI0
aI2
aI1
aI0
aI0
aI0
aI0
aI4
aa(lp1787
I0
aI1
aI0
aI1
aI1
aI0
aI1
aI0
aI0
aI1
aI0
aI0
aI4
aa(lp1788
I0
aI1
aI0
aI1
aI1
aI0
aI1
aI1
aI0
aI0
aI0
aI0
aI4
aa(lp1789
I0
aI1
aI0
aI1
aI1
aI0
aI1
aI0
aI0
aI0
aI0
aI0
aI4
aa(lp1790
I0
aI1
aI0
aI1
aI1
aI0
aI1
aI0
aI0
aI0
aI0
aI0
aI4
aa(lp1791
I0
aI1
aI0
aI1
aI0
aI0
aI1
aI1
aI0
aI0
aI0
aI2
aI4
aa(lp1792
I0
aI1
aI0
aI1
aI1
aI1
aI3
aI1
aI0
aI0
aI0
aI0
aI4
aa(lp1793
I0
aI1
aI0
aI1
aI0
aI0
aI1
aI0
aI0
aI1
aI0
aI0
aI4
aa(lp1794
I0
aI1
aI0
aI4
aI1
aI0
aI1
aI0
aI0
aI0
aI0
aI0
aI4
aa(lp1795
I0
aI1
aI0
aI1
aI1
aI0
aI1
aI1
aI0
aI1
aI1
aI1
aI4
aa(lp1796
I0
aI0
aI0
aI1
aI1
aI0
aI1
aI1
aI0
aI0
aI0
aI0
aI4
aa(lp1797
I5
aI1
aI0
aI1
aI1
aI0
aI1
aI0
aI0
aI0
aI0
aI0
aI4
aa(lp1798
I0
aI0
aI0
aI1
aI1
aI0
aI1
aI1
aI0
aI2
aI0
aI0
aI4
aa(lp1799
I5
aI1
aI0
aI1
aI1
aI0
aI1
aI1
aI0
aI0
aI0
aI0
aI4
aa(lp1800
I5
aI0
aI0
aI1
aI1
aI0
aI1
aI0
aI0
aI2
aI0
aI0
aI4
aa(lp1801
I0
aI1
aI0
aI1
aI1
aI0
aI1
aI0
aI0
aI2
aI0
aI0
aI4
aa(lp1802
I0
aI1
aI0
aI1
aI1
aI0
aI1
aI0
aI0
aI0
aI0
aI0
aI4
aa(lp1803
I0
aI0
aI0
aI1
aI0
aI0
aI1
aI0
aI0
aI0
aI0
aI0
aI4
aa(lp1804
I0
aI1
aI0
aI1
aI1
aI0
aI1
aI1
aI0
aI0
aI0
aI2
aI4
aa(lp1805
I0
aI1
aI0
aI1
aI1
aI0
aI1
aI1
aI0
aI0
aI0
aI1
aI4
aa(lp1806
I0
aI1
aI0
aI1
aI0
aI0
aI3
aI0
aI0
aI0
aI0
aI0
aI4
aa(lp1807
I0
aI1
aI0
aI1
aI1
aI0
aI3
aI1
aI0
aI0
aI0
aI2
aI4
aa(lp1808
I0
aI1
aI0
aI3
aI0
aI1
aI3
aI0
aI0
aI2
aI1
aI0
aI4
aa(lp1809
I0
aI1
aI0
aI1
aI1
aI0
aI2
aI1
aI0
aI0
aI0
aI0
aI4
aa(lp1810
I0
aI1
aI0
aI1
aI1
aI0
aI1
aI0
aI0
aI2
aI0
aI0
aI4
aa(lp1811
I1
aI4
aI0
aI0
aI0
aI0
aI1
aI0
aI0
aI2
aI0
aI0
aI4
aa(lp1812
I0
aI1
aI0
aI1
aI0
aI4
aI3
aI0
aI0
aI2
aI2
aI2
aI4
aa(lp1813
I0
aI1
aI0
aI1
aI1
aI1
aI3
aI0
aI0
aI0
aI0
aI0
aI4
aa(lp1814
I0
aI1
aI0
aI4
aI0
aI0
aI1
aI0
aI0
aI0
aI0
aI0
aI4
aa(lp1815
I0
aI0
aI0
aI1
aI1
aI0
aI1
aI1
aI0
aI0
aI0
aI2
aI4
aa(lp1816
I0
aI4
aI0
aI2
aI1
aI0
aI3
aI0
aI0
aI0
aI0
aI0
aI4
aa(lp1817
I0
aI1
aI0
aI1
aI0
aI0
aI1
aI1
aI0
aI0
aI0
aI0
aI4
aa(lp1818
I0
aI1
aI0
aI1
aI1
aI0
aI1
aI0
aI0
aI0
aI0
aI0
aI4
aa(lp1819
I0
aI1
aI0
aI1
aI1
aI0
aI1
aI1
aI0
aI0
aI0
aI0
aI4
aa(lp1820
I1
aI4
aI0
aI1
aI1
aI0
aI1
aI0
aI0
aI0
aI0
aI0
aI4
aa(lp1821
I0
aI1
aI0
aI4
aI1
aI0
aI1
aI0
aI0
aI0
aI0
aI0
aI4
aa(lp1822
I0
aI1
aI0
aI1
aI1
aI0
aI1
aI0
aI0
aI0
aI0
aI0
aI4
aa(lp1823
I0
aI1
aI0
aI4
aI1
aI0
aI3
aI0
aI0
aI0
aI0
aI2
aI4
aa(lp1824
I0
aI0
aI0
aI3
aI0
aI0
aI0
aI1
aI0
aI0
aI0
aI0
aI4
aa(lp1825
I0
aI1
aI0
aI4
aI1
aI0
aI1
aI0
aI0
aI0
aI0
aI0
aI4
aa(lp1826
I0
aI1
aI0
aI1
aI0
aI0
aI3
aI0
aI0
aI0
aI0
aI0
aI4
aa(lp1827
I0
aI0
aI0
aI1
aI1
aI0
aI3
aI0
aI0
aI0
aI0
aI2
aI4
aa(lp1828
I0
aI1
aI0
aI1
aI1
aI1
aI3
aI0
aI0
aI2
aI0
aI0
aI4
aa(lp1829
I0
aI1
aI0
aI1
aI1
aI0
aI1
aI1
aI0
aI0
aI0
aI0
aI4
aa(lp1830
I0
aI1
aI0
aI4
aI1
aI0
aI1
aI0
aI0
aI0
aI0
aI0
aI4
aa(lp1831
I1
aI0
aI1
aI0
aI1
aI1
aI0
aI1
aI1
aI0
aI2
aI0
aI4
aa.