(lp0
(lp1
I0
aI1
aI1
aI1
aI1
aI1
aI0
aI0
aI0
aI0
aI2
aI2
aI3
aa(lp2
I1
aI2
aI1
aI1
aI2
aI1
aI1
aI0
aI0
aI0
aI0
aI0
aI3
aa(lp3
I1
aI1
aI0
aI1
aI1
aI1
aI0
aI0
aI0
aI0
aI0
aI2
aI3
aa(lp4
I0
aI1
aI1
aI1
aI0
aI1
aI1
aI0
aI0
aI2
aI2
aI2
aI3
aa(lp5
I1
aI1
aI1
aI1
aI0
aI1
aI0
aI0
aI0
aI0
aI0
aI1
aI3
aa(lp6
I0
aI1
aI1
aI1
aI2
aI1
aI0
aI0
aI0
aI2
aI0
aI0
aI3
aa(lp7
I1
aI1
aI0
aI1
aI0
aI1
aI1
aI0
aI0
aI2
aI0
aI0
aI3
aa(lp8
I1
aI1
aI1
aI1
aI0
aI1
aI0
aI0
aI0
aI0
aI0
aI2
aI3
aa(lp9
I1
aI1
aI1
aI1
aI0
aI1
aI0
aI0
aI0
aI2
aI0
aI0
aI3
aa(lp10
I0
aI1
aI1
aI3
aI0
aI1
aI0
aI0
aI0
aI0
aI0
aI2
aI3
aa(lp11
I2
aI1
aI1
aI3
aI0
aI1
aI1
aI0
aI0
aI2
aI2
aI2
aI3
aa(lp12
I0
aI1
aI0
aI1
aI0
aI1
aI0
aI2
aI0
aI2
aI2
aI2
aI3
aa(lp13
I1
aI1
aI1
aI1
aI0
aI1
aI1
aI0
aI0
aI0
aI0
aI0
aI3
aa(lp14
I1
aI1
aI0
aI1
aI1
aI2
aI1
aI0
aI0
aI2
aI0
aI0
aI3
aa(lp15
I1
aI1
aI1
aI1
aI0
aI1
aI0
aI0
aI0
aI0
aI0
aI0
aI3
aa(lp16
I1
aI1
aI1
aI1
aI1
aI1
aI0
aI0
aI0
aI2
aI0
aI0
aI3
aa(lp17
I1
aI1
aI1
aI1
aI0
aI1
aI0
aI0
aI0
aI0
aI1
aI2
aI3
aa(lp18
I2
aI1
aI1
aI1
aI0
aI1
aI1
aI0
aI0
aI0
aI0
aI0
aI3
aa(lp19
I0
aI1
aI1
aI3
aI1
aI2
aI0
aI0
aI0
aI0
aI0
aI2
aI3
aa(lp20
I2
aI1
aI1
aI1
aI0
aI1
aI1
aI0
aI0
aI2
aI0
aI0
aI3
aa(lp21
I0
aI1
aI1
aI1
aI0
aI1
aI1
aI0
aI0
aI2
aI2
aI1
aI3
aa(lp22
I1
aI1
aI1
aI1
aI2
aI2
aI0
aI0
aI0
aI0
aI0
aI2
aI3
aa(lp23
I1
aI1
aI1
aI1
aI2
aI1
aI0
aI2
aI0
aI0
aI0
aI0
aI3
aa(lp24
I1
aI1
aI1
aI1
aI0
aI1
aI0
aI0
aI0
aI2
aI2
aI2
aI3
aa(lp25
I1
aI1
aI1
aI1
aI0
aI1
aI1
aI0
aI0
aI2
aI2
aI2
aI3
aa(lp26
I2
aI1
aI0
aI1
aI0
aI1
aI1
aI0
aI0
aI0
aI0
aI2
aI3
aa(lp27
I1
aI1
aI1
aI1
aI0
aI2
aI1
aI2
aI0
aI0
aI0
aI2
aI3
aa(lp28
I1
aI1
aI1
aI1
aI0
aI1
aI0
aI0
aI0
aI2
aI2
aI0
aI3
aa(lp29
I2
aI1
aI1
aI1
aI0
aI1
aI0
aI0
aI0
aI2
aI2
aI0
aI3
aa(lp30
I0
aI1
aI1
aI1
aI2
aI1
aI0
aI0
aI0
aI0
aI0
aI0
aI3
aa(lp31
I0
aI2
aI1
aI1
aI1
aI1
aI1
aI0
aI0
aI0
aI0
aI0
aI3
aa(lp32
I1
aI1
aI1
aI3
aI1
aI1
aI1
aI0
aI0
aI2
aI0
aI0
aI3
aa(lp33
I1
aI1
aI1
aI1
aI0
aI1
aI0
aI0
aI0
aI0
aI0
aI0
aI3
aa(lp34
I1
aI1
aI1
aI1
aI1
aI1
aI0
aI0
aI0
aI2
aI2
aI1
aI3
aa(lp35
I1
aI1
aI1
aI1
aI0
aI2
aI0
aI0
aI0
aI0
aI0
aI0
aI3
aa(lp36
I2
aI1
aI1
aI1
aI0
aI2
aI1
aI0
aI0
aI0
aI0
aI0
aI3
aa(lp37
I2
aI1
aI1
aI1
aI0
aI1
aI0
aI0
aI0
aI0
aI2
aI2
aI3
aa(lp38
I1
aI1
aI0
aI1
aI0
aI1
aI1
aI2
aI0
aI0
aI0
aI0
aI3
aa(lp39
I0
aI1
aI1
aI1
aI1
aI1
aI1
aI0
aI0
aI0
aI0
aI0
aI3
aa(lp40
I1
aI1
aI1
aI3
aI0
aI2
aI1
aI1
aI0
aI0
aI0
aI0
aI3
aa(lp41
I2
aI2
aI1
aI1
aI0
aI1
aI1
aI0
aI0
aI0
aI0
aI0
aI3
aa(lp42
I1
aI1
aI1
aI1
aI0
aI1
aI0
aI0
aI0
aI0
aI1
aI2
aI3
aa(lp43
I1
aI1
aI1
aI1
aI1
aI2
aI0
aI0
aI0
aI0
aI0
aI0
aI3
aa(lp44
I2
aI1
aI1
aI1
aI0
aI1
aI0
aI0
aI0
aI0
aI0
aI2
aI3
aa(lp45
I1
aI1
aI1
aI1
aI0
aI1
aI0
aI1
aI0
aI0
aI0
aI0
aI3
aa(lp46
I1
aI1
aI1
aI3
aI0
aI1
aI0
aI0
aI0
aI0
aI0
aI2
aI3
aa(lp47
I1
aI1
aI1
aI1
aI2
aI1
aI0
aI0
aI0
aI2
aI0
aI0
aI3
aa(lp48
I1
aI1
aI1
aI1
aI0
aI1
aI0
aI0
aI0
aI0
aI0
aI0
aI3
aa(lp49
I1
aI1
aI1
aI3
aI0
aI1
aI0
aI0
aI0
aI2
aI2
aI2
aI3
aa(lp50
I0
aI1
aI1
aI1
aI0
aI1
aI0
aI0
aI0
aI0
aI0
aI0
aI3
aa(lp51
I2
aI1
aI1
aI1
aI1
aI1
aI0
aI0
aI0
aI0
aI0
aI2
aI3
aa(lp52
I1
aI1
aI0
aI1
aI0
aI1
aI1
aI0
aI0
aI2
aI1
aI0
aI3
aa(lp53
I1
aI1
aI1
aI1
aI0
aI2
aI0
aI0
aI0
aI0
aI0
aI0
aI3
aa(lp54
I1
aI1
aI1
aI1
aI0
aI0
aI0
aI0
aI0
aI2
aI2
aI2
aI3
aa(lp55
I1
aI1
aI1
aI1
aI0
aI1
aI0
aI0
aI0
aI0
aI0
aI0
aI3
aa(lp56
I2
aI1
aI1
aI1
aI1
aI1
aI0
aI0
aI0
aI2
aI2
aI2
aI3
aa(lp57
I1
aI1
aI1
aI1
aI0
aI2
aI0
aI1
aI0
aI0
aI0
aI0
aI3
aa(lp58
I0
aI1
aI1
aI1
aI0
aI2
aI1
aI0
aI0
aI2
aI0
aI0
aI3
aa(lp59
I2
aI1
aI1
aI3
aI2
aI1
aI0
aI1
aI0
aI0
aI0
aI0
aI3
aa(lp60
I2
aI2
aI0
aI1
aI1
aI1
aI0
aI3
aI0
aI2
aI2
aI0
aI3
aa(lp61
I1
aI1
aI1
aI3
aI0
aI1
aI0
aI0
aI0
aI2
aI0
aI0
aI3
aa(lp62
I1
aI1
aI1
aI1
aI1
aI1
aI0
aI0
aI0
aI2
aI2
aI0
aI3
aa(lp63
I1
aI1
aI1
aI1
aI0
aI2
aI0
aI0
aI0
aI0
aI0
aI2
aI3
aa(lp64
I1
aI1
aI1
aI1
aI1
aI1
aI0
aI0
aI0
aI0
aI2
aI2
aI3
aa(lp65
I1
aI1
aI0
aI1
aI0
aI1
aI0
aI0
aI0
aI2
aI1
aI1
aI3
aa(lp66
I2
aI1
aI1
aI0
aI0
aI1
aI0
aI0
aI0
aI0
aI0
aI0
aI3
aa(lp67
I2
aI1
aI1
aI1
aI0
aI1
aI0
aI0
aI0
aI0
aI0
aI0
aI3
aa(lp68
I1
aI2
aI1
aI3
aI0
aI2
aI1
aI0
aI0
aI0
aI0
aI0
aI3
aa(lp69
I1
aI1
aI1
aI0
aI0
aI2
aI0
aI2
aI0
aI0
aI2
aI2
aI3
aa(lp70
I1
aI1
aI1
aI0
aI2
aI1
aI0
aI2
aI0
aI0
aI0
aI2
aI3
aa(lp71
I2
aI1
aI1
aI1
aI1
aI1
aI0
aI0
aI0
aI0
aI1
aI0
aI3
aa(lp72
I2
aI2
aI1
aI1
aI0
aI2
aI0
aI0
aI0
aI0
aI0
aI0
aI3
aa(lp73
I2
aI1
aI1
aI0
aI2
aI1
aI0
aI0
aI0
aI0
aI0
aI0
aI3
aa(lp74
I1
aI1
aI1
aI1
aI2
aI2
aI0
aI0
aI0
aI0
aI0
aI0
aI3
aa(lp75
I2
aI1
aI1
aI3
aI2
aI1
aI0
aI0
aI0
aI0
aI0
aI0
aI3
aa(lp76
I2
aI1
aI1
aI3
aI2
aI1
aI0
aI0
aI0
aI0
aI0
aI0
aI3
aa(lp77
I1
aI1
aI1
aI0
aI0
aI2
aI0
aI1
aI0
aI0
aI0
aI2
aI3
aa(lp78
I1
aI1
aI1
aI3
aI2
aI1
aI0
aI0
aI0
aI0
aI1
aI2
aI3
aa(lp79
I2
aI1
aI0
aI1
aI1
aI1
aI1
aI3
aI0
aI2
aI2
aI0
aI3
aa(lp80
I1
aI1
aI0
aI1
aI0
aI1
aI1
aI3
aI0
aI0
aI0
aI0
aI3
aa(lp81
I1
aI1
aI1
aI1
aI0
aI1
aI1
aI0
aI0
aI0
aI0
aI0
aI3
aa(lp82
I0
aI1
aI0
aI1
aI0
aI1
aI0
aI0
aI0
aI2
aI0
aI0
aI3
aa(lp83
I2
aI1
aI1
aI1
aI2
aI2
aI0
aI0
aI0
aI2
aI0
aI0
aI3
aa(lp84
I1
aI0
aI1
aI1
aI2
aI1
aI1
aI0
aI0
aI0
aI2
aI2
aI3
aa(lp85
I2
aI1
aI1
aI1
aI0
aI1
aI0
aI0
aI0
aI2
aI2
aI0
aI3
aa(lp86
I1
aI1
aI1
aI1
aI0
aI2
aI0
aI0
aI0
aI0
aI0
aI0
aI3
aa(lp87
I1
aI1
aI1
aI3
aI0
aI2
aI0
aI0
aI0
aI0
aI0
aI0
aI3
aa(lp88
I1
aI1
aI0
aI1
aI0
aI1
aI1
aI1
aI0
aI2
aI1
aI0
aI3
aa(lp89
I1
aI1
aI1
aI1
aI0
aI1
aI0
aI0
aI0
aI2
aI0
aI0
aI3
aa(lp90
I1
aI1
aI1
aI1
aI0
aI2
aI0
aI0
aI0
aI0
aI0
aI0
aI3
aa(lp91
I1
aI1
aI1
aI1
aI0
aI1
aI1
aI0
aI0
aI0
aI0
aI2
aI3
aa(lp92
I1
aI1
aI1
aI1
aI0
aI1
aI0
aI0
aI0
aI0
aI0
aI2
aI3
aa(lp93
I1
aI1
aI1
aI1
aI0
aI2
aI0
aI0
aI0
aI0
aI2
aI2
aI3
aa(lp94
I1
aI1
aI1
aI1
aI0
aI1
aI0
aI0
aI0
aI1
aI0
aI0
aI3
aa(lp95
I1
aI1
aI0
aI1
aI0
aI1
aI1
aI0
aI0
aI0
aI1
aI2
aI3
aa(lp96
I2
aI1
aI1
aI1
aI2
aI1
aI0
aI0
aI0
aI2
aI0
aI0
aI3
aa(lp97
I1
aI1
aI1
aI1
aI2
aI1
aI1
aI0
aI0
aI0
aI0
aI2
aI3
aa(lp98
I1
aI2
aI0
aI0
aI0
aI1
aI0
aI0
aI0
aI0
aI2
aI2
aI3
aa(lp99
I2
aI1
aI1
aI1
aI2
aI1
aI0
aI0
aI0
aI0
aI0
aI0
aI3
aa(lp100
I2
aI1
aI0
aI1
aI0
aI1
aI1
aI0
aI0
aI0
aI0
aI0
aI3
aa(lp101
I1
aI2
aI0
aI1
aI0
aI1
aI0
aI1
aI0
aI0
aI0
aI0
aI3
aa(lp102
I1
aI1
aI1
aI1
aI1
aI2
aI0
aI0
aI0
aI0
aI0
aI0
aI3
aa(lp103
I1
aI2
aI1
aI1
aI0
aI1
aI1
aI0
aI0
aI0
aI2
aI2
aI3
aa(lp104
I1
aI1
aI1
aI1
aI0
aI1
aI0
aI0
aI0
aI0
aI0
aI0
aI3
aa(lp105
I2
aI1
aI1
aI1
aI2
aI1
aI0
aI0
aI0
aI2
aI2
aI2
aI3
aa(lp106
I2
aI1
aI1
aI1
aI0
aI1
aI0
aI3
aI0
aI0
aI0
aI0
aI3
aa(lp107
I1
aI1
aI1
aI1
aI0
aI1
aI0
aI0
aI0
aI2
aI1
aI0
aI3
aa(lp108
I1
aI1
aI1
aI1
aI1
aI1
aI0
aI0
aI0
aI0
aI0
aI0
aI3
aa(lp109
I1
aI1
aI1
aI1
aI0
aI1
aI0
aI0
aI0
aI0
aI0
aI0
aI3
aa(lp110
I2
aI1
aI1
aI1
aI0
aI1
aI0
aI0
aI0
aI2
aI1
aI0
aI3
aa(lp111
I2
aI1
aI1
aI1
aI0
aI1
aI0
aI0
aI0
aI2
aI0
aI0
aI3
aa(lp112
I0
aI1
aI1
aI1
aI0
aI1
aI0
aI0
aI0
aI2
aI0
aI0
aI3
aa(lp113
I2
aI1
aI1
aI1
aI0
aI1
aI0
aI0
aI0
aI0
aI2
aI2
aI3
aa(lp114
I1
aI1
aI1
aI1
aI0
aI1
aI0
aI0
aI0
aI0
aI1
aI2
aI3
aa(lp115
I1
aI1
aI1
aI1
aI2
aI1
aI0
aI0
aI0
aI0
aI1
aI0
aI3
aa(lp116
I1
aI0
aI1
aI1
aI0
aI1
aI1
aI0
aI0
aI2
aI0
aI0
aI3
aa(lp117
I2
aI1
aI1
aI1
aI0
aI2
aI0
aI0
aI0
aI2
aI2
aI0
aI3
aa(lp118
I0
aI1
aI1
aI1
aI0
aI1
aI0
aI0
aI0
aI2
aI2
aI2
aI3
aa(lp119
I0
aI1
aI1
aI1
aI1
aI1
aI0
aI0
aI0
aI2
aI0
aI0
aI3
aa(lp120
I1
aI1
aI1
aI1
aI0
aI1
aI0
aI0
aI0
aI2
aI1
aI0
aI3
aa(lp121
I1
aI1
aI1
aI1
aI2
aI1
aI0
aI0
aI0
aI0
aI2
aI2
aI3
aa(lp122
I2
aI1
aI1
aI1
aI0
aI1
aI0
aI0
aI0
aI0
aI0
aI2
aI3
aa(lp123
I1
aI2
aI1
aI1
aI1
aI1
aI0
aI0
aI0
aI0
aI0
aI0
aI3
aa(lp124
I1
aI1
aI0
aI1
aI0
aI1
aI0
aI0
aI0
aI2
aI0
aI0
aI3
aa(lp125
I1
aI1
aI1
aI1
aI0
aI1
aI0
aI0
aI0
aI0
aI0
aI2
aI3
aa(lp126
I1
aI2
aI1
aI0
aI1
aI1
aI0
aI0
aI0
aI0
aI0
aI2
aI3
aa(lp127
I1
aI2
aI1
aI1
aI0
aI1
aI1
aI0
aI0
aI2
aI0
aI2
aI3
aa(lp128
I2
aI1
aI1
aI1
aI0
aI1
aI0
aI0
aI0
aI0
aI0
aI2
aI3
aa(lp129
I1
aI1
aI0
aI1
aI2
aI1
aI0
aI0
aI0
aI0
aI0
aI2
aI3
aa(lp130
I1
aI1
aI1
aI1
aI0
aI2
aI0
aI0
aI0
aI2
aI2
aI0
aI3
aa(lp131
I1
aI2
aI1
aI3
aI0
aI1
aI0
aI0
aI0
aI0
aI0
aI0
aI3
aa(lp132
I1
aI2
aI1
aI1
aI2
aI1
aI0
aI0
aI0
aI0
aI0
aI2
aI3
aa(lp133
I1
aI1
aI1
aI1
aI2
aI1
aI0
aI0
aI0
aI0
aI0
aI0
aI3
aa(lp134
I1
aI2
aI1
aI1
aI0
aI1
aI1
aI0
aI0
aI2
aI0
aI0
aI3
aa(lp135
I1
aI1
aI1
aI1
aI2
aI1
aI1
aI0
aI0
aI2
aI0
aI0
aI3
aa(lp136
I1
aI2
aI1
aI1
aI0
aI1
aI0
aI0
aI0
aI0
aI0
aI2
aI3
aa(lp137
I1
aI1
aI1
aI3
aI0
aI1
aI1
aI0
aI0
aI0
aI0
aI2
aI3
aa(lp138
I2
aI1
aI1
aI1
aI0
aI1
aI0
aI2
aI0
aI0
aI0
aI0
aI3
aa(lp139
I0
aI1
aI1
aI1
aI0
aI0
aI1
aI0
aI0
aI2
aI0
aI0
aI3
aa(lp140
I0
aI1
aI1
aI1
aI1
aI0
aI1
aI0
aI0
aI2
aI1
aI0
aI3
aa(lp141
I0
aI2
aI1
aI1
aI2
aI0
aI2
aI0
aI0
aI2
aI0
aI1
aI3
aa(lp142
I0
aI0
aI0
aI1
aI1
aI0
aI0
aI1
aI0
aI2
aI0
aI0
aI3
aa(lp143
I0
aI2
aI1
aI1
aI1
aI0
aI1
aI0
aI0
aI2
aI0
aI0
aI3
aa(lp144
I0
aI2
aI1
aI1
aI1
aI0
aI1
aI0
aI0
aI2
aI0
aI0
aI3
aa(lp145
I0
aI2
aI1
aI1
aI1
aI2
aI0
aI1
aI0
aI2
aI2
aI0
aI3
aa(lp146
I0
aI2
aI1
aI1
aI2
aI1
aI1
aI0
aI0
aI2
aI0
aI1
aI3
aa(lp147
I0
aI1
aI2
aI1
aI1
aI0
aI1
aI0
aI0
aI2
aI1
aI0
aI3
aa(lp148
I0
aI2
aI1
aI1
aI1
aI1
aI0
aI1
aI0
aI2
aI0
aI0
aI3
aa(lp149
I0
aI1
aI1
aI1
aI1
aI1
aI1
aI1
aI3
aI2
aI0
aI0
aI3
aa(lp150
I0
aI2
aI0
aI1
aI1
aI0
aI0
aI0
aI0
aI2
aI0
aI0
aI3
aa(lp151
I0
aI2
aI0
aI0
aI1
aI0
aI1
aI1
aI0
aI2
aI0
aI0
aI3
aa(lp152
I0
aI2
aI1
aI1
aI1
aI2
aI2
aI1
aI0
aI2
aI0
aI0
aI3
aa(lp153
I0
aI2
aI1
aI1
aI1
aI0
aI0
aI1
aI0
aI2
aI0
aI0
aI3
aa(lp154
I0
aI1
aI1
aI0
aI1
aI1
aI1
aI0
aI0
aI2
aI0
aI0
aI3
aa(lp155
I0
aI1
aI2
aI1
aI1
aI0
aI2
aI0
aI0
aI2
aI0
aI0
aI3
aa(lp156
I0
aI2
aI0
aI1
aI3
aI0
aI1
aI0
aI0
aI2
aI0
aI0
aI3
aa(lp157
I0
aI2
aI2
aI1
aI3
aI1
aI2
aI1
aI0
aI2
aI0
aI0
aI3
aa(lp158
I0
aI2
aI1
aI1
aI3
aI2
aI1
aI0
aI0
aI2
aI0
aI0
aI3
aa(lp159
I0
aI1
aI1
aI1
aI1
aI0
aI1
aI0
aI0
aI0
aI0
aI0
aI3
aa(lp160
I0
aI2
aI1
aI1
aI2
aI2
aI1
aI0
aI0
aI0
aI0
aI0
aI3
aa(lp161
I2
aI1
aI1
aI1
aI0
aI2
aI0
aI0
aI0
aI0
aI0
aI2
aI3
aa(lp162
I1
aI1
aI1
aI1
aI0
aI1
aI0
aI0
aI0
aI0
aI0
aI2
aI3
aa(lp163
I2
aI1
aI1
aI1
aI1
aI2
aI0
aI0
aI0
aI0
aI2
aI2
aI3
aa(lp164
I0
aI2
aI1
aI1
aI0
aI1
aI0
aI0
aI0
aI0
aI0
aI0
aI3
aa(lp165
I2
aI1
aI1
aI1
aI0
aI1
aI0
aI0
aI0
aI0
aI0
aI0
aI3
aa(lp166
I1
aI1
aI1
aI1
aI1
aI2
aI0
aI0
aI0
aI0
aI0
aI0
aI3
aa(lp167
I1
aI2
aI1
aI1
aI0
aI2
aI0
aI0
aI0
aI0
aI1
aI0
aI3
aa(lp168
I1
aI1
aI1
aI1
aI0
aI2
aI0
aI0
aI0
aI0
aI0
aI0
aI3
aa(lp169
I1
aI1
aI1
aI1
aI0
aI1
aI0
aI0
aI0
aI0
aI0
aI0
aI3
aa(lp170
I1
aI1
aI1
aI1
aI2
aI2
aI0
aI0
aI0
aI0
aI0
aI2
aI3
aa(lp171
I2
aI1
aI1
aI1
aI0
aI1
aI0
aI0
aI0
aI0
aI2
aI2
aI3
aa(lp172
I1
aI1
aI1
aI1
aI0
aI1
aI0
aI0
aI0
aI0
aI0
aI2
aI3
aa(lp173
I2
aI1
aI1
aI1
aI0
aI1
aI0
aI0
aI0
aI0
aI0
aI0
aI3
aa(lp174
I2
aI1
aI1
aI1
aI0
aI2
aI0
aI0
aI0
aI0
aI0
aI0
aI3
aa(lp175
I2
aI2
aI1
aI1
aI2
aI2
aI0
aI0
aI0
aI0
aI0
aI0
aI3
aa(lp176
I1
aI2
aI1
aI3
aI0
aI2
aI0
aI0
aI0
aI0
aI0
aI0
aI3
aa(lp177
I2
aI1
aI1
aI1
aI0
aI2
aI0
aI0
aI0
aI0
aI1
aI2
aI3
aa(lp178
I1
aI1
aI1
aI1
aI2
aI1
aI0
aI0
aI0
aI0
aI0
aI0
aI3
aa(lp179
I2
aI1
aI1
aI1
aI1
aI1
aI0
aI0
aI0
aI0
aI0
aI2
aI3
aa(lp180
I2
aI1
aI1
aI1
aI2
aI2
aI0
aI0
aI0
aI2
aI2
aI0
aI3
aa(lp181
I2
aI1
aI1
aI1
aI0
aI1
aI0
aI0
aI0
aI2
aI2
aI2
aI3
aa(lp182
I2
aI1
aI0
aI1
aI0
aI1
aI0
aI0
aI0
aI0
aI2
aI2
aI3
aa(lp183
I2
aI1
aI0
aI1
aI0
aI1
aI0
aI2
aI0
aI0
aI0
aI2
aI3
aa(lp184
I2
aI1
aI1
aI1
aI0
aI1
aI0
aI0
aI0
aI0
aI0
aI0
aI3
aa(lp185
I2
aI1
aI1
aI1
aI0
aI2
aI1
aI0
aI0
aI0
aI0
aI0
aI3
aa(lp186
I2
aI1
aI1
aI1
aI2
aI1
aI0
aI0
aI0
aI0
aI0
aI2
aI3
aa(lp187
I2
aI1
aI1
aI1
aI0
aI1
aI0
aI0
aI0
aI2
aI1
aI0
aI3
aa(lp188
I2
aI1
aI1
aI1
aI0
aI1
aI0
aI0
aI0
aI0
aI0
aI0
aI3
aa(lp189
I2
aI1
aI1
aI1
aI1
aI1
aI0
aI0
aI0
aI2
aI0
aI0
aI3
aa(lp190
I0
aI1
aI1
aI1
aI1
aI2
aI1
aI0
aI0
aI2
aI0
aI0
aI3
aa(lp191
I2
aI1
aI1
aI1
aI1
aI1
aI0
aI0
aI0
aI2
aI0
aI0
aI3
aa(lp192
I1
aI1
aI0
aI1
aI0
aI1
aI0
aI0
aI0
aI2
aI2
aI2
aI3
aa(lp193
I1
aI1
aI1
aI1
aI0
aI1
aI0
aI0
aI0
aI2
aI1
aI0
aI3
aa(lp194
I1
aI1
aI1
aI1
aI0
aI1
aI0
aI0
aI0
aI0
aI0
aI0
aI3
aa(lp195
I0
aI1
aI1
aI1
aI0
aI1
aI0
aI0
aI0
aI0
aI0
aI0
aI3
aa(lp196
I2
aI1
aI1
aI1
aI0
aI1
aI0
aI0
aI0
aI0
aI1
aI0
aI3
aa(lp197
I1
aI1
aI1
aI1
aI1
aI2
aI0
aI0
aI0
aI0
aI0
aI0
aI3
aa(lp198
I1
aI1
aI1
aI1
aI0
aI1
aI0
aI0
aI0
aI0
aI0
aI0
aI3
aa(lp199
I0
aI1
aI0
aI1
aI0
aI1
aI1
aI0
aI0
aI0
aI0
aI2
aI3
aa(lp200
I1
aI1
aI1
aI1
aI0
aI2
aI0
aI2
aI0
aI0
aI0
aI2
aI3
aa(lp201
I2
aI1
aI1
aI1
aI0
aI1
aI1
aI0
aI0
aI2
aI0
aI0
aI3
aa(lp202
I2
aI1
aI1
aI0
aI2
aI1
aI1
aI0
aI0
aI0
aI0
aI0
aI3
aa(lp203
I1
aI1
aI1
aI3
aI0
aI1
aI1
aI0
aI0
aI0
aI0
aI2
aI3
aa(lp204
I2
aI2
aI1
aI1
aI0
aI2
aI0
aI0
aI0
aI0
aI0
aI0
aI3
aa(lp205
I2
aI1
aI1
aI1
aI1
aI2
aI0
aI0
aI0
aI2
aI2
aI0
aI3
aa(lp206
I0
aI1
aI1
aI1
aI0
aI1
aI0
aI0
aI0
aI2
aI0
aI0
aI3
aa(lp207
I1
aI1
aI1
aI1
aI0
aI1
aI0
aI0
aI0
aI2
aI0
aI2
aI3
aa(lp208
I2
aI1
aI1
aI1
aI2
aI1
aI0
aI0
aI0
aI0
aI0
aI2
aI3
aa(lp209
I2
aI1
aI1
aI1
aI0
aI1
aI0
aI0
aI0
aI0
aI0
aI0
aI3
aa(lp210
I0
aI1
aI1
aI1
aI0
aI1
aI0
aI2
aI0
aI1
aI2
aI2
aI3
aa(lp211
I2
aI1
aI1
aI1
aI0
aI1
aI0
aI0
aI0
aI0
aI0
aI2
aI3
aa(lp212
I1
aI0
aI1
aI1
aI0
aI2
aI0
aI0
aI0
aI0
aI2
aI2
aI3
aa(lp213
I2
aI0
aI1
aI3
aI0
aI1
aI0
aI0
aI0
aI0
aI0
aI1
aI3
aa(lp214
I1
aI0
aI1
aI1
aI1
aI1
aI1
aI0
aI0
aI2
aI2
aI0
aI3
aa(lp215
I1
aI0
aI1
aI3
aI0
aI2
aI0
aI0
aI0
aI2
aI0
aI0
aI3
aa(lp216
I1
aI1
aI1
aI1
aI2
aI1
aI0
aI0
aI0
aI0
aI0
aI1
aI3
aa(lp217
I1
aI1
aI1
aI1
aI0
aI1
aI0
aI0
aI0
aI2
aI2
aI2
aI3
aa(lp218
I1
aI1
aI1
aI3
aI0
aI1
aI0
aI0
aI0
aI2
aI0
aI0
aI3
aa(lp219
I1
aI1
aI1
aI1
aI0
aI1
aI0
aI0
aI0
aI1
aI0
aI0
aI3
aa(lp220
I1
aI1
aI1
aI0
aI0
aI1
aI0
aI0
aI0
aI0
aI0
aI0
aI3
aa(lp221
I2
aI1
aI1
aI3
aI0
aI1
aI0
aI0
aI0
aI0
aI0
aI1
aI3
aa(lp222
I2
aI1
aI0
aI1
aI1
aI2
aI0
aI0
aI0
aI2
aI2
aI1
aI3
aa(lp223
I2
aI1
aI1
aI1
aI2
aI2
aI0
aI0
aI0
aI2
aI2
aI1
aI3
aa(lp224
I2
aI1
aI1
aI3
aI0
aI1
aI0
aI0
aI0
aI2
aI0
aI0
aI3
aa(lp225
I1
aI1
aI1
aI1
aI2
aI1
aI0
aI0
aI0
aI0
aI1
aI2
aI3
aa(lp226
I1
aI0
aI1
aI1
aI0
aI1
aI1
aI0
aI0
aI2
aI2
aI0
aI3
aa(lp227
I2
aI1
aI1
aI3
aI2
aI2
aI0
aI0
aI0
aI1
aI0
aI0
aI3
aa(lp228
I1
aI1
aI1
aI1
aI0
aI2
aI0
aI2
aI0
aI0
aI1
aI2
aI3
aa(lp229
I1
aI0
aI1
aI1
aI1
aI1
aI0
aI0
aI0
aI2
aI0
aI0
aI3
aa(lp230
I2
aI1
aI1
aI1
aI1
aI1
aI0
aI0
aI0
aI2
aI2
aI2
aI3
aa(lp231
I1
aI1
aI1
aI1
aI0
aI2
aI0
aI0
aI0
aI0
aI0
aI0
aI3
aa(lp232
I1
aI1
aI1
aI1
aI0
aI2
aI0
aI0
aI0
aI0
aI0
aI1
aI3
aa(lp233
I2
aI2
aI1
aI1
aI1
aI1
aI1
aI0
aI0
aI0
aI0
aI0
aI3
aa(lp234
I2
aI1
aI1
aI0
aI1
aI1
aI0
aI0
aI0
aI2
aI0
aI0
aI3
aa(lp235
I1
aI1
aI1
aI1
aI1
aI1
aI0
aI0
aI0
aI2
aI0
aI0
aI3
aa(lp236
I1
aI1
aI1
aI1
aI1
aI2
aI0
aI0
aI0
aI0
aI0
aI2
aI3
aa(lp237
I2
aI1
aI1
aI1
aI0
aI1
aI1
aI0
aI0
aI0
aI0
aI0
aI3
aa(lp238
I1
aI1
aI1
aI1
aI2
aI1
aI0
aI0
aI0
aI2
aI2
aI1
aI3
aa(lp239
I1
aI1
aI1
aI1
aI2
aI1
aI0
aI0
aI0
aI0
aI0
aI0
aI3
aa(lp240
I1
aI1
aI1
aI1
aI2
aI1
aI0
aI0
aI0
aI0
aI0
aI0
aI3
aa(lp241
I1
aI1
aI1
aI1
aI2
aI1
aI0
aI0
aI0
aI2
aI1
aI0
aI3
aa(lp242
I1
aI1
aI1
aI1
aI2
aI1
aI0
aI0
aI0
aI2
aI0
aI0
aI3
aa(lp243
I1
aI1
aI1
aI1
aI2
aI1
aI0
aI0
aI0
aI0
aI2
aI2
aI3
aa(lp244
I1
aI1
aI1
aI1
aI2
aI1
aI0
aI0
aI0
aI2
aI2
aI0
aI3
aa(lp245
I1
aI1
aI1
aI1
aI2
aI1
aI0
aI0
aI0
aI0
aI0
aI0
aI3
aa(lp246
I1
aI1
aI1
aI1
aI2
aI1
aI0
aI0
aI0
aI0
aI0
aI0
aI3
aa(lp247
I1
aI1
aI1
aI1
aI0
aI1
aI1
aI0
aI0
aI0
aI0
aI0
aI3
aa(lp248
I1
aI1
aI0
aI1
aI2
aI1
aI0
aI3
aI0
aI2
aI0
aI0
aI3
aa(lp249
I1
aI1
aI1
aI1
aI2
aI1
aI0
aI0
aI0
aI0
aI0
aI0
aI3
aa(lp250
I1
aI1
aI1
aI1
aI2
aI1
aI0
aI0
aI0
aI2
aI1
aI0
aI3
aa(lp251
I1
aI1
aI1
aI1
aI2
aI1
aI0
aI2
aI0
aI0
aI0
aI0
aI3
aa(lp252
I1
aI1
aI1
aI1
aI2
aI1
aI0
aI0
aI0
aI0
aI0
aI0
aI3
aa(lp253
I1
aI1
aI1
aI1
aI2
aI1
aI0
aI0
aI0
aI0
aI0
aI2
aI3
aa(lp254
I1
aI1
aI1
aI1
aI2
aI1
aI0
aI0
aI0
aI0
aI0
aI2
aI3
aa(lp255
I1
aI1
aI1
aI1
aI2
aI1
aI0
aI0
aI0
aI0
aI2
aI2
aI3
aa(lp256
I1
aI1
aI1
aI1
aI2
aI1
aI0
aI0
aI0
aI1
aI0
aI0
aI3
aa(lp257
I1
aI1
aI0
aI1
aI0
aI1
aI0
aI3
aI0
aI2
aI0
aI0
aI3
aa(lp258
I1
aI2
aI0
aI1
aI2
aI1
aI0
aI3
aI0
aI2
aI2
aI0
aI3
aa(lp259
I0
aI1
aI0
aI1
aI0
aI1
aI0
aI3
aI0
aI0
aI0
aI2
aI3
aa(lp260
I1
aI1
aI1
aI1
aI2
aI1
aI0
aI0
aI0
aI0
aI0
aI2
aI3
aa(lp261
I1
aI1
aI1
aI1
aI2
aI1
aI0
aI0
aI0
aI2
aI0
aI0
aI3
aa(lp262
I1
aI1
aI0
aI1
aI0
aI1
aI1
aI3
aI0
aI0
aI0
aI2
aI3
aa(lp263
I1
aI1
aI1
aI1
aI2
aI1
aI0
aI0
aI0
aI0
aI0
aI2
aI3
aa(lp264
I1
aI1
aI1
aI1
aI2
aI1
aI0
aI0
aI0
aI0
aI2
aI2
aI3
aa(lp265
I1
aI1
aI1
aI1
aI2
aI1
aI0
aI0
aI0
aI0
aI0
aI0
aI3
aa(lp266
I1
aI1
aI0
aI1
aI2
aI1
aI1
aI0
aI0
aI0
aI0
aI0
aI3
aa(lp267
I2
aI1
aI1
aI1
aI0
aI1
aI1
aI0
aI0
aI0
aI0
aI2
aI3
aa(lp268
I0
aI1
aI1
aI1
aI0
aI1
aI1
aI0
aI0
aI0
aI1
aI0
aI3
aa(lp269
I1
aI1
aI1
aI1
aI0
aI2
aI0
aI0
aI0
aI2
aI1
aI0
aI3
aa(lp270
I2
aI1
aI1
aI1
aI1
aI1
aI0
aI0
aI0
aI0
aI0
aI0
aI3
aa(lp271
I1
aI1
aI1
aI3
aI0
aI1
aI0
aI0
aI0
aI0
aI0
aI0
aI3
aa(lp272
I1
aI1
aI1
aI1
aI1
aI1
aI0
aI1
aI0
aI0
aI0
aI0
aI3
aa(lp273
I1
aI1
aI1
aI1
aI1
aI1
aI0
aI0
aI0
aI2
aI0
aI0
aI3
aa(lp274
I1
aI1
aI1
aI1
aI1
aI2
aI0
aI0
aI0
aI0
aI0
aI0
aI3
aa(lp275
I2
aI1
aI1
aI1
aI0
aI1
aI1
aI0
aI0
aI0
aI0
aI0
aI3
aa(lp276
I1
aI1
aI1
aI1
aI0
aI1
aI0
aI0
aI0
aI2
aI2
aI1
aI3
aa(lp277
I1
aI1
aI1
aI1
aI0
aI1
aI0
aI0
aI0
aI0
aI0
aI0
aI3
aa(lp278
I1
aI1
aI1
aI1
aI0
aI1
aI0
aI0
aI0
aI0
aI0
aI0
aI3
aa(lp279
I1
aI1
aI1
aI1
aI0
aI1
aI0
aI0
aI0
aI2
aI1
aI0
aI3
aa(lp280
I1
aI1
aI1
aI1
aI0
aI1
aI0
aI0
aI0
aI2
aI0
aI0
aI3
aa(lp281
I1
aI1
aI1
aI1
aI0
aI1
aI0
aI0
aI0
aI0
aI2
aI2
aI3
aa(lp282
I1
aI1
aI1
aI1
aI0
aI1
aI0
aI0
aI0
aI2
aI2
aI0
aI3
aa(lp283
I1
aI1
aI1
aI1
aI0
aI1
aI0
aI0
aI0
aI0
aI0
aI0
aI3
aa(lp284
I1
aI1
aI1
aI1
aI0
aI1
aI0
aI0
aI0
aI0
aI0
aI0
aI3
aa(lp285
I1
aI1
aI1
aI1
aI0
aI1
aI1
aI0
aI0
aI0
aI0
aI0
aI3
aa(lp286
I1
aI1
aI0
aI1
aI0
aI1
aI0
aI3
aI0
aI2
aI0
aI0
aI3
aa(lp287
I1
aI1
aI1
aI1
aI0
aI1
aI0
aI0
aI0
aI0
aI0
aI0
aI3
aa(lp288
I1
aI1
aI1
aI1
aI0
aI1
aI0
aI0
aI0
aI2
aI1
aI0
aI3
aa(lp289
I1
aI1
aI1
aI1
aI0
aI1
aI0
aI2
aI0
aI0
aI0
aI0
aI3
aa(lp290
I1
aI1
aI1
aI1
aI0
aI1
aI0
aI0
aI0
aI0
aI0
aI0
aI3
aa(lp291
I1
aI1
aI1
aI1
aI0
aI1
aI0
aI0
aI0
aI0
aI0
aI2
aI3
aa(lp292
I1
aI1
aI1
aI1
aI0
aI1
aI0
aI0
aI0
aI0
aI0
aI2
aI3
aa(lp293
I1
aI1
aI1
aI1
aI0
aI1
aI0
aI0
aI0
aI0
aI2
aI2
aI3
aa(lp294
I1
aI1
aI1
aI1
aI0
aI1
aI0
aI0
aI0
aI1
aI0
aI0
aI3
aa(lp295
I1
aI1
aI0
aI1
aI0
aI1
aI0
aI3
aI0
aI2
aI0
aI0
aI3
aa(lp296
I1
aI2
aI0
aI1
aI2
aI1
aI0
aI3
aI0
aI2
aI2
aI0
aI3
aa(lp297
I0
aI1
aI0
aI1
aI0
aI1
aI0
aI3
aI0
aI0
aI0
aI2
aI3
aa(lp298
I1
aI1
aI1
aI1
aI0
aI1
aI0
aI0
aI0
aI0
aI0
aI2
aI3
aa(lp299
I1
aI1
aI1
aI1
aI0
aI1
aI0
aI0
aI0
aI2
aI0
aI0
aI3
aa(lp300
I1
aI1
aI0
aI1
aI0
aI1
aI1
aI3
aI0
aI0
aI0
aI2
aI3
aa(lp301
I1
aI1
aI1
aI1
aI0
aI1
aI0
aI0
aI0
aI0
aI0
aI2
aI3
aa(lp302
I1
aI1
aI1
aI1
aI0
aI1
aI0
aI0
aI0
aI0
aI2
aI2
aI3
aa(lp303
I1
aI1
aI1
aI1
aI0
aI1
aI0
aI0
aI0
aI0
aI0
aI0
aI3
aa(lp304
I1
aI1
aI0
aI1
aI0
aI1
aI1
aI0
aI0
aI0
aI0
aI0
aI3
aa(lp305
I2
aI1
aI1
aI1
aI0
aI1
aI1
aI0
aI0
aI2
aI0
aI2
aI3
aa(lp306
I2
aI1
aI0
aI1
aI1
aI1
aI1
aI3
aI0
aI2
aI2
aI0
aI3
aa(lp307
I1
aI1
aI0
aI1
aI0
aI1
aI1
aI3
aI0
aI0
aI0
aI0
aI3
aa(lp308
I1
aI1
aI1
aI1
aI0
aI1
aI1
aI0
aI0
aI0
aI0
aI0
aI3
aa(lp309
I0
aI1
aI0
aI1
aI0
aI1
aI0
aI0
aI0
aI2
aI0
aI0
aI3
aa(lp310
I2
aI1
aI1
aI1
aI2
aI2
aI0
aI0
aI0
aI2
aI0
aI0
aI3
aa(lp311
I1
aI0
aI1
aI1
aI2
aI1
aI0
aI0
aI0
aI0
aI2
aI2
aI3
aa(lp312
I2
aI1
aI1
aI1
aI0
aI1
aI0
aI0
aI0
aI2
aI2
aI0
aI3
aa(lp313
I1
aI1
aI1
aI1
aI0
aI2
aI0
aI0
aI0
aI0
aI0
aI0
aI3
aa(lp314
I1
aI1
aI1
aI3
aI0
aI2
aI0
aI0
aI0
aI0
aI0
aI0
aI3
aa(lp315
I1
aI1
aI1
aI1
aI0
aI1
aI0
aI0
aI0
aI2
aI1
aI2
aI3
aa(lp316
I1
aI1
aI1
aI1
aI0
aI1
aI0
aI0
aI0
aI2
aI0
aI0
aI3
aa(lp317
I1
aI1
aI1
aI1
aI0
aI2
aI0
aI0
aI0
aI0
aI0
aI2
aI3
aa(lp318
I1
aI1
aI1
aI1
aI0
aI1
aI1
aI0
aI0
aI0
aI0
aI2
aI3
aa(lp319
I1
aI1
aI1
aI1
aI0
aI1
aI0
aI0
aI0
aI0
aI0
aI2
aI3
aa(lp320
I1
aI1
aI1
aI1
aI0
aI2
aI0
aI0
aI0
aI0
aI2
aI2
aI3
aa(lp321
I1
aI1
aI1
aI1
aI0
aI1
aI0
aI0
aI0
aI1
aI0
aI0
aI3
aa(lp322
I1
aI1
aI0
aI1
aI0
aI1
aI1
aI0
aI0
aI0
aI1
aI2
aI3
aa(lp323
I2
aI1
aI1
aI1
aI2
aI1
aI0
aI0
aI0
aI2
aI0
aI0
aI3
aa(lp324
I1
aI1
aI1
aI1
aI2
aI1
aI1
aI0
aI0
aI0
aI0
aI2
aI3
aa(lp325
I1
aI1
aI1
aI0
aI0
aI1
aI0
aI0
aI0
aI0
aI2
aI2
aI3
aa(lp326
I2
aI1
aI1
aI1
aI2
aI1
aI0
aI0
aI0
aI0
aI0
aI0
aI3
aa(lp327
I2
aI1
aI1
aI1
aI1
aI1
aI1
aI0
aI0
aI2
aI0
aI0
aI3
aa(lp328
I1
aI2
aI1
aI1
aI0
aI1
aI0
aI0
aI0
aI0
aI0
aI2
aI3
aa(lp329
I1
aI1
aI1
aI3
aI2
aI2
aI1
aI0
aI0
aI0
aI0
aI2
aI3
aa(lp330
I1
aI1
aI1
aI1
aI0
aI2
aI0
aI2
aI0
aI0
aI0
aI2
aI3
aa(lp331
I2
aI0
aI0
aI0
aI0
aI1
aI1
aI3
aI0
aI0
aI0
aI0
aI3
aa(lp332
I2
aI1
aI1
aI1
aI2
aI2
aI0
aI0
aI0
aI0
aI0
aI2
aI3
aa(lp333
I1
aI1
aI1
aI1
aI0
aI1
aI0
aI0
aI0
aI0
aI0
aI2
aI3
aa(lp334
I2
aI1
aI1
aI1
aI0
aI1
aI0
aI0
aI0
aI2
aI2
aI2
aI3
aa(lp335
I1
aI1
aI1
aI1
aI0
aI1
aI1
aI0
aI0
aI0
aI2
aI2
aI3
aa(lp336
I2
aI1
aI1
aI1
aI2
aI1
aI0
aI0
aI0
aI0
aI0
aI2
aI3
aa(lp337
I1
aI1
aI1
aI3
aI0
aI1
aI1
aI0
aI0
aI0
aI2
aI2
aI3
aa(lp338
I1
aI1
aI1
aI3
aI0
aI1
aI1
aI0
aI0
aI2
aI0
aI0
aI3
aa(lp339
I1
aI1
aI1
aI1
aI2
aI1
aI0
aI0
aI0
aI0
aI0
aI2
aI3
aa(lp340
I1
aI1
aI0
aI1
aI1
aI1
aI1
aI3
aI0
aI2
aI0
aI0
aI3
aa(lp341
I1
aI1
aI0
aI1
aI0
aI1
aI1
aI0
aI0
aI0
aI0
aI1
aI3
aa(lp342
I2
aI1
aI1
aI1
aI0
aI1
aI1
aI0
aI0
aI0
aI0
aI2
aI3
aa(lp343
I1
aI1
aI1
aI1
aI0
aI2
aI0
aI0
aI0
aI0
aI0
aI0
aI3
aa(lp344
I1
aI1
aI1
aI1
aI0
aI1
aI0
aI0
aI0
aI0
aI0
aI2
aI3
aa(lp345
I0
aI2
aI1
aI1
aI1
aI0
aI1
aI0
aI0
aI2
aI0
aI0
aI3
aa(lp346
I0
aI2
aI1
aI1
aI1
aI2
aI2
aI0
aI0
aI2
aI0
aI0
aI3
aa(lp347
I0
aI1
aI1
aI1
aI1
aI0
aI1
aI0
aI0
aI2
aI0
aI2
aI3
aa(lp348
I0
aI2
aI0
aI1
aI0
aI0
aI1
aI0
aI0
aI2
aI0
aI0
aI3
aa(lp349
I0
aI1
aI2
aI1
aI1
aI0
aI2
aI0
aI0
aI2
aI2
aI0
aI3
aa(lp350
I0
aI1
aI0
aI1
aI3
aI0
aI1
aI0
aI0
aI2
aI0
aI0
aI3
aa(lp351
I0
aI2
aI1
aI1
aI1
aI1
aI1
aI0
aI0
aI2
aI0
aI2
aI3
aa(lp352
I0
aI1
aI1
aI1
aI1
aI0
aI1
aI1
aI0
aI2
aI0
aI0
aI3
aa(lp353
I0
aI1
aI1
aI1
aI3
aI0
aI2
aI0
aI0
aI2
aI0
aI0
aI3
aa(lp354
I0
aI2
aI1
aI1
aI3
aI0
aI2
aI0
aI0
aI2
aI1
aI2
aI3
aa(lp355
I0
aI1
aI1
aI1
aI1
aI0
aI1
aI0
aI0
aI2
aI0
aI0
aI3
aa(lp356
I0
aI1
aI1
aI1
aI1
aI1
aI0
aI0
aI0
aI2
aI2
aI0
aI3
aa(lp357
I0
aI1
aI1
aI0
aI1
aI0
aI1
aI0
aI0
aI2
aI0
aI0
aI3
aa(lp358
I0
aI1
aI1
aI1
aI3
aI1
aI1
aI0
aI0
aI2
aI0
aI2
aI3
aa(lp359
I0
aI1
aI1
aI1
aI1
aI1
aI2
aI0
aI0
aI2
aI0
aI0
aI3
aa(lp360
I0
aI2
aI1
aI1
aI1
aI0
aI1
aI0
aI0
aI2
aI0
aI0
aI3
aa(lp361
I0
aI1
aI2
aI1
aI1
aI0
aI2
aI0
aI0
aI2
aI0
aI0
aI3
aa(lp362
I0
aI1
aI1
aI1
aI1
aI0
aI1
aI0
aI0
aI2
aI0
aI0
aI3
aa(lp363
I0
aI1
aI1
aI1
aI1
aI0
aI2
aI0
aI0
aI2
aI0
aI0
aI3
aa(lp364
I1
aI1
aI1
aI1
aI2
aI1
aI0
aI0
aI0
aI2
aI1
aI2
aI3
aa(lp365
I1
aI1
aI1
aI1
aI0
aI1
aI0
aI0
aI0
aI0
aI0
aI2
aI3
aa(lp366
I1
aI1
aI1
aI3
aI0
aI1
aI0
aI0
aI0
aI0
aI0
aI2
aI3
aa(lp367
I1
aI1
aI1
aI1
aI1
aI1
aI0
aI0
aI0
aI0
aI0
aI2
aI3
aa(lp368
I1
aI1
aI1
aI1
aI1
aI1
aI0
aI0
aI0
aI0
aI0
aI2
aI3
aa(lp369
I1
aI1
aI0
aI1
aI0
aI1
aI1
aI0
aI0
aI0
aI0
aI2
aI3
aa(lp370
I1
aI1
aI1
aI3
aI0
aI1
aI0
aI1
aI0
aI0
aI0
aI2
aI3
aa(lp371
I1
aI1
aI1
aI1
aI0
aI1
aI0
aI0
aI0
aI0
aI0
aI0
aI3
aa(lp372
I1
aI1
aI1
aI1
aI2
aI1
aI0
aI0
aI0
aI0
aI0
aI2
aI3
aa(lp373
I0
aI1
aI0
aI1
aI0
aI2
aI1
aI3
aI0
aI0
aI0
aI0
aI3
aa(lp374
I0
aI1
aI1
aI1
aI1
aI2
aI0
aI0
aI0
aI0
aI0
aI0
aI3
aa(lp375
I1
aI1
aI0
aI1
aI1
aI1
aI0
aI0
aI0
aI0
aI0
aI2
aI3
aa(lp376
I1
aI1
aI1
aI1
aI0
aI1
aI1
aI0
aI0
aI0
aI0
aI2
aI3
aa(lp377
I2
aI1
aI1
aI3
aI0
aI1
aI1
aI0
aI0
aI0
aI0
aI0
aI3
aa(lp378
I1
aI1
aI1
aI1
aI0
aI1
aI0
aI0
aI0
aI0
aI0
aI0
aI3
aa(lp379
I1
aI2
aI1
aI3
aI1
aI2
aI1
aI0
aI0
aI2
aI0
aI0
aI3
aa(lp380
I1
aI1
aI1
aI1
aI0
aI1
aI0
aI0
aI0
aI0
aI0
aI2
aI3
aa(lp381
I2
aI1
aI1
aI3
aI1
aI1
aI0
aI0
aI0
aI0
aI0
aI0
aI3
aa(lp382
I1
aI1
aI1
aI1
aI0
aI1
aI0
aI0
aI0
aI0
aI0
aI0
aI3
aa(lp383
I1
aI1
aI1
aI1
aI0
aI1
aI0
aI0
aI0
aI0
aI0
aI1
aI3
aa(lp384
I1
aI1
aI1
aI1
aI0
aI1
aI0
aI0
aI0
aI2
aI0
aI0
aI3
aa(lp385
I2
aI1
aI1
aI3
aI0
aI2
aI0
aI0
aI0
aI1
aI0
aI0
aI3
aa(lp386
I1
aI1
aI1
aI1
aI0
aI1
aI0
aI0
aI0
aI2
aI0
aI0
aI3
aa(lp387
I2
aI2
aI1
aI1
aI0
aI2
aI0
aI0
aI0
aI0
aI0
aI2
aI3
aa(lp388
I1
aI1
aI1
aI3
aI2
aI1
aI0
aI0
aI0
aI0
aI0
aI2
aI3
aa(lp389
I2
aI1
aI1
aI1
aI0
aI1
aI0
aI0
aI0
aI0
aI0
aI1
aI3
aa(lp390
I2
aI1
aI1
aI3
aI0
aI1
aI0
aI0
aI0
aI0
aI0
aI0
aI3
aa(lp391
I1
aI1
aI1
aI1
aI0
aI1
aI0
aI0
aI0
aI0
aI1
aI2
aI3
aa(lp392
I2
aI1
aI1
aI1
aI0
aI2
aI0
aI0
aI0
aI0
aI0
aI2
aI3
aa(lp393
I1
aI1
aI1
aI1
aI0
aI2
aI0
aI0
aI0
aI2
aI0
aI0
aI3
aa(lp394
I1
aI1
aI1
aI1
aI0
aI1
aI0
aI0
aI0
aI2
aI0
aI0
aI3
aa(lp395
I2
aI2
aI1
aI1
aI2
aI1
aI0
aI0
aI0
aI0
aI1
aI2
aI3
aa(lp396
I2
aI1
aI1
aI3
aI1
aI1
aI0
aI0
aI0
aI2
aI1
aI1
aI3
aa(lp397
I2
aI1
aI1
aI3
aI1
aI1
aI0
aI0
aI0
aI2
aI0
aI2
aI3
aa(lp398
I1
aI1
aI1
aI1
aI2
aI1
aI0
aI0
aI0
aI0
aI1
aI2
aI3
aa(lp399
I1
aI1
aI1
aI1
aI0
aI1
aI0
aI0
aI0
aI0
aI0
aI0
aI3
aa(lp400
I2
aI1
aI1
aI1
aI1
aI1
aI0
aI0
aI0
aI0
aI0
aI0
aI3
aa(lp401
I2
aI1
aI1
aI1
aI2
aI1
aI1
aI0
aI0
aI2
aI0
aI2
aI3
aa(lp402
I1
aI1
aI1
aI1
aI1
aI1
aI0
aI0
aI0
aI0
aI0
aI0
aI3
aa(lp403
I2
aI2
aI1
aI1
aI0
aI1
aI0
aI0
aI0
aI0
aI0
aI0
aI3
aa(lp404
I1
aI2
aI1
aI1
aI2
aI1
aI0
aI0
aI0
aI0
aI0
aI1
aI3
aa(lp405
I1
aI1
aI1
aI1
aI2
aI1
aI0
aI0
aI0
aI0
aI0
aI2
aI3
aa(lp406
I1
aI1
aI1
aI1
aI0
aI1
aI0
aI0
aI0
aI0
aI0
aI2
aI3
aa(lp407
I1
aI1
aI1
aI1
aI0
aI1
aI0
aI0
aI0
aI0
aI0
aI0
aI3
aa(lp408
I2
aI1
aI1
aI1
aI2
aI1
aI1
aI0
aI0
aI1
aI2
aI2
aI3
aa(lp409
I1
aI1
aI1
aI1
aI2
aI1
aI0
aI0
aI0
aI0
aI0
aI2
aI3
aa(lp410
I1
aI1
aI1
aI1
aI0
aI1
aI1
aI0
aI0
aI0
aI0
aI0
aI3
aa(lp411
I1
aI1
aI1
aI1
aI0
aI1
aI0
aI0
aI0
aI0
aI0
aI2
aI3
aa(lp412
I2
aI1
aI1
aI1
aI2
aI1
aI0
aI0
aI0
aI0
aI0
aI1
aI3
aa(lp413
I1
aI1
aI1
aI1
aI2
aI1
aI0
aI0
aI0
aI0
aI0
aI2
aI3
aa(lp414
I1
aI1
aI1
aI1
aI1
aI1
aI0
aI0
aI0
aI0
aI0
aI0
aI3
aa(lp415
I2
aI1
aI1
aI1
aI0
aI2
aI0
aI2
aI0
aI0
aI0
aI2
aI3
aa(lp416
I1
aI2
aI1
aI1
aI2
aI2
aI0
aI0
aI0
aI1
aI0
aI0
aI3
aa(lp417
I1
aI1
aI1
aI1
aI2
aI1
aI0
aI0
aI0
aI1
aI0
aI2
aI3
aa(lp418
I1
aI1
aI1
aI1
aI2
aI1
aI0
aI0
aI0
aI0
aI0
aI0
aI3
aa(lp419
I1
aI1
aI1
aI3
aI0
aI1
aI0
aI0
aI0
aI1
aI0
aI0
aI3
aa(lp420
I1
aI1
aI1
aI1
aI2
aI1
aI0
aI0
aI0
aI0
aI0
aI0
aI3
aa(lp421
I2
aI1
aI1
aI1
aI0
aI2
aI0
aI0
aI0
aI0
aI0
aI2
aI3
aa(lp422
I1
aI1
aI1
aI1
aI1
aI1
aI0
aI0
aI0
aI2
aI2
aI0
aI3
aa(lp423
I1
aI1
aI1
aI1
aI0
aI1
aI0
aI0
aI0
aI2
aI0
aI0
aI3
aa(lp424
I1
aI1
aI1
aI3
aI0
aI1
aI1
aI2
aI0
aI2
aI0
aI0
aI3
aa(lp425
I1
aI1
aI1
aI1
aI0
aI1
aI0
aI0
aI0
aI0
aI0
aI2
aI3
aa(lp426
I2
aI1
aI1
aI1
aI2
aI1
aI0
aI0
aI0
aI2
aI2
aI0
aI3
aa(lp427
I1
aI1
aI1
aI3
aI0
aI2
aI0
aI0
aI0
aI0
aI0
aI0
aI3
aa(lp428
I2
aI1
aI1
aI1
aI2
aI1
aI1
aI0
aI0
aI0
aI0
aI2
aI3
aa(lp429
I1
aI1
aI1
aI1
aI0
aI1
aI0
aI0
aI0
aI0
aI0
aI0
aI3
aa(lp430
I2
aI1
aI1
aI1
aI0
aI1
aI0
aI0
aI0
aI0
aI0
aI0
aI3
aa(lp431
I2
aI1
aI0
aI1
aI1
aI1
aI0
aI0
aI0
aI2
aI0
aI0
aI3
aa(lp432
I1
aI1
aI1
aI1
aI0
aI1
aI0
aI0
aI0
aI0
aI0
aI2
aI3
aa(lp433
I1
aI1
aI1
aI1
aI2
aI1
aI1
aI0
aI0
aI2
aI0
aI0
aI3
aa(lp434
I1
aI1
aI1
aI1
aI2
aI1
aI0
aI0
aI0
aI0
aI0
aI0
aI3
aa(lp435
I1
aI1
aI0
aI1
aI1
aI1
aI1
aI0
aI0
aI2
aI0
aI0
aI3
aa(lp436
I0
aI1
aI1
aI1
aI2
aI1
aI0
aI0
aI0
aI0
aI2
aI2
aI3
aa(lp437
I1
aI1
aI1
aI1
aI0
aI1
aI1
aI0
aI0
aI0
aI0
aI0
aI3
aa(lp438
I1
aI1
aI1
aI1
aI0
aI1
aI0
aI2
aI0
aI2
aI0
aI0
aI3
aa(lp439
I1
aI1
aI1
aI1
aI0
aI1
aI1
aI0
aI0
aI0
aI0
aI0
aI3
aa(lp440
I1
aI1
aI1
aI1
aI1
aI2
aI0
aI0
aI0
aI0
aI0
aI0
aI3
aa(lp441
I0
aI1
aI1
aI1
aI1
aI1
aI1
aI0
aI0
aI0
aI0
aI2
aI3
aa(lp442
I0
aI1
aI1
aI1
aI0
aI1
aI0
aI0
aI0
aI2
aI2
aI0
aI3
aa(lp443
I1
aI1
aI1
aI1
aI1
aI2
aI1
aI0
aI0
aI0
aI0
aI0
aI3
aa(lp444
I0
aI1
aI1
aI1
aI0
aI1
aI0
aI0
aI0
aI2
aI2
aI2
aI3
aa(lp445
I1
aI1
aI1
aI1
aI0
aI1
aI1
aI0
aI0
aI0
aI0
aI0
aI3
aa(lp446
I1
aI1
aI1
aI1
aI2
aI1
aI0
aI0
aI0
aI0
aI0
aI0
aI3
aa(lp447
I1
aI1
aI1
aI1
aI0
aI1
aI0
aI0
aI0
aI0
aI0
aI0
aI3
aa(lp448
I2
aI1
aI0
aI1
aI1
aI1
aI1
aI0
aI0
aI0
aI0
aI0
aI3
aa(lp449
I2
aI1
aI1
aI1
aI0
aI1
aI0
aI0
aI0
aI0
aI0
aI0
aI3
aa(lp450
I1
aI1
aI1
aI1
aI0
aI1
aI0
aI0
aI0
aI0
aI0
aI0
aI3
aa(lp451
I1
aI1
aI1
aI1
aI0
aI1
aI0
aI0
aI0
aI0
aI0
aI2
aI3
aa(lp452
I1
aI1
aI1
aI3
aI0
aI2
aI1
aI2
aI0
aI0
aI0
aI0
aI3
aa(lp453
I1
aI1
aI1
aI3
aI2
aI1
aI0
aI0
aI0
aI0
aI0
aI2
aI3
aa(lp454
I0
aI1
aI1
aI1
aI2
aI1
aI0
aI0
aI0
aI2
aI0
aI0
aI3
aa(lp455
I1
aI1
aI1
aI1
aI0
aI1
aI0
aI0
aI0
aI0
aI0
aI2
aI3
aa(lp456
I2
aI1
aI1
aI1
aI0
aI1
aI0
aI0
aI0
aI0
aI0
aI2
aI3
aa(lp457
I1
aI1
aI1
aI1
aI0
aI1
aI1
aI0
aI0
aI0
aI0
aI0
aI3
aa(lp458
I2
aI1
aI1
aI1
aI0
aI1
aI0
aI0
aI0
aI0
aI0
aI2
aI3
aa(lp459
I2
aI1
aI1
aI1
aI1
aI2
aI0
aI0
aI0
aI2
aI2
aI0
aI3
aa(lp460
I2
aI1
aI1
aI1
aI0
aI1
aI0
aI0
aI0
aI0
aI0
aI2
aI3
aa(lp461
I1
aI1
aI1
aI1
aI0
aI1
aI1
aI0
aI0
aI0
aI0
aI0
aI3
aa(lp462
I1
aI1
aI1
aI3
aI0
aI2
aI1
aI0
aI0
aI2
aI0
aI0
aI3
aa(lp463
I1
aI1
aI1
aI1
aI0
aI1
aI0
aI0
aI0
aI0
aI0
aI0
aI3
aa(lp464
I1
aI1
aI1
aI1
aI0
aI1
aI0
aI0
aI0
aI0
aI0
aI2
aI3
aa(lp465
I1
aI1
aI1
aI3
aI0
aI1
aI0
aI0
aI0
aI0
aI2
aI2
aI3
aa(lp466
I2
aI2
aI1
aI1
aI0
aI1
aI0
aI0
aI0
aI0
aI0
aI0
aI3
aa(lp467
I2
aI1
aI1
aI1
aI0
aI1
aI0
aI0
aI0
aI0
aI0
aI0
aI3
aa(lp468
I1
aI1
aI1
aI1
aI0
aI2
aI0
aI0
aI0
aI0
aI0
aI0
aI3
aa(lp469
I2
aI1
aI1
aI1
aI0
aI1
aI0
aI0
aI0
aI0
aI0
aI0
aI3
aa(lp470
I2
aI1
aI1
aI1
aI0
aI2
aI0
aI0
aI0
aI2
aI2
aI0
aI3
aa(lp471
I1
aI1
aI0
aI1
aI0
aI2
aI0
aI0
aI0
aI2
aI2
aI0
aI3
aa(lp472
I2
aI1
aI1
aI3
aI0
aI1
aI0
aI0
aI0
aI0
aI0
aI0
aI3
aa(lp473
I1
aI1
aI1
aI1
aI2
aI1
aI0
aI0
aI0
aI0
aI0
aI2
aI3
aa(lp474
I1
aI1
aI1
aI1
aI0
aI1
aI0
aI2
aI0
aI0
aI0
aI0
aI3
aa(lp475
I1
aI1
aI1
aI1
aI0
aI1
aI0
aI0
aI0
aI0
aI0
aI2
aI3
aa(lp476
I2
aI1
aI1
aI3
aI2
aI1
aI0
aI0
aI0
aI0
aI0
aI2
aI3
aa(lp477
I1
aI1
aI1
aI1
aI2
aI1
aI0
aI0
aI0
aI0
aI0
aI0
aI3
aa(lp478
I1
aI1
aI1
aI1
aI0
aI1
aI0
aI0
aI0
aI0
aI0
aI2
aI3
aa(lp479
I2
aI1
aI1
aI1
aI2
aI1
aI0
aI0
aI0
aI2
aI0
aI0
aI3
aa(lp480
I0
aI1
aI0
aI1
aI0
aI2
aI1
aI0
aI0
aI2
aI0
aI0
aI3
aa(lp481
I1
aI1
aI1
aI1
aI0
aI1
aI0
aI0
aI0
aI0
aI0
aI0
aI3
aa(lp482
I2
aI1
aI1
aI1
aI2
aI1
aI0
aI0
aI0
aI2
aI0
aI0
aI3
aa(lp483
I1
aI1
aI1
aI1
aI0
aI2
aI0
aI0
aI0
aI2
aI2
aI0
aI3
aa(lp484
I2
aI1
aI1
aI1
aI1
aI1
aI0
aI0
aI0
aI0
aI0
aI0
aI3
aa(lp485
I0
aI1
aI1
aI1
aI1
aI1
aI0
aI0
aI0
aI0
aI0
aI0
aI3
aa(lp486
I1
aI1
aI0
aI1
aI0
aI1
aI0
aI2
aI0
aI0
aI2
aI0
aI3
aa(lp487
I1
aI1
aI1
aI3
aI0
aI1
aI1
aI0
aI0
aI2
aI0
aI0
aI3
aa(lp488
I0
aI1
aI1
aI1
aI1
aI1
aI0
aI0
aI0
aI2
aI0
aI0
aI3
aa(lp489
I2
aI1
aI1
aI1
aI0
aI2
aI0
aI0
aI0
aI0
aI0
aI2
aI3
aa(lp490
I2
aI1
aI1
aI3
aI0
aI1
aI0
aI0
aI0
aI2
aI2
aI0
aI3
aa(lp491
I1
aI1
aI1
aI1
aI1
aI1
aI0
aI0
aI0
aI0
aI0
aI0
aI3
aa(lp492
I1
aI1
aI1
aI3
aI2
aI1
aI0
aI0
aI0
aI0
aI0
aI0
aI3
aa(lp493
I1
aI1
aI1
aI1
aI1
aI1
aI0
aI0
aI0
aI0
aI0
aI0
aI3
aa(lp494
I1
aI1
aI1
aI3
aI0
aI1
aI1
aI0
aI0
aI1
aI0
aI0
aI3
aa(lp495
I1
aI1
aI1
aI3
aI0
aI1
aI1
aI0
aI0
aI0
aI0
aI2
aI3
aa(lp496
I2
aI1
aI1
aI1
aI0
aI2
aI0
aI0
aI0
aI2
aI1
aI0
aI3
aa(lp497
I1
aI1
aI1
aI1
aI2
aI1
aI0
aI2
aI0
aI2
aI0
aI0
aI3
aa(lp498
I0
aI1
aI1
aI1
aI0
aI1
aI1
aI0
aI0
aI0
aI0
aI2
aI3
aa(lp499
I2
aI1
aI1
aI1
aI0
aI1
aI0
aI0
aI0
aI2
aI0
aI0
aI4
aa(lp500
I1
aI1
aI0
aI1
aI2
aI1
aI0
aI0
aI0
aI0
aI0
aI2
aI4
aa(lp501
I1
aI2
aI1
aI3
aI0
aI1
aI1
aI0
aI0
aI0
aI2
aI2
aI4
aa(lp502
I1
aI1
aI1
aI1
aI2
aI2
aI0
aI0
aI0
aI0
aI0
aI0
aI4
aa(lp503
I2
aI1
aI1
aI1
aI0
aI1
aI1
aI2
aI0
aI0
aI0
aI0
aI4
aa(lp504
I2
aI1
aI1
aI0
aI0
aI1
aI0
aI2
aI0
aI2
aI0
aI0
aI4
aa(lp505
I1
aI1
aI0
aI1
aI2
aI1
aI1
aI0
aI0
aI0
aI0
aI0
aI4
aa(lp506
I1
aI1
aI1
aI1
aI0
aI2
aI0
aI2
aI0
aI0
aI2
aI2
aI4
aa(lp507
I2
aI1
aI1
aI1
aI0
aI2
aI1
aI0
aI0
aI2
aI0
aI0
aI4
aa(lp508
I2
aI1
aI1
aI0
aI0
aI2
aI0
aI0
aI0
aI2
aI0
aI0
aI4
aa(lp509
I2
aI1
aI1
aI1
aI0
aI2
aI1
aI0
aI0
aI2
aI0
aI0
aI4
aa(lp510
I1
aI1
aI0
aI1
aI0
aI1
aI1
aI3
aI0
aI2
aI2
aI0
aI4
aa(lp511
I2
aI1
aI1
aI1
aI0
aI2
aI0
aI0
aI0
aI2
aI0
aI0
aI4
aa(lp512
I1
aI1
aI1
aI1
aI1
aI1
aI0
aI2
aI0
aI0
aI0
aI0
aI4
aa(lp513
I1
aI1
aI1
aI3
aI2
aI2
aI0
aI0
aI0
aI2
aI2
aI2
aI4
aa(lp514
I2
aI1
aI1
aI3
aI2
aI1
aI0
aI0
aI0
aI0
aI0
aI1
aI4
aa(lp515
I2
aI1
aI1
aI3
aI0
aI2
aI1
aI2
aI0
aI0
aI2
aI2
aI4
aa(lp516
I2
aI0
aI1
aI1
aI0
aI2
aI1
aI0
aI0
aI2
aI0
aI0
aI4
aa(lp517
I2
aI1
aI0
aI1
aI2
aI1
aI1
aI0
aI0
aI2
aI2
aI0
aI4
aa(lp518
I2
aI1
aI1
aI1
aI2
aI1
aI0
aI0
aI0
aI0
aI0
aI0
aI4
aa(lp519
I2
aI1
aI0
aI1
aI0
aI1
aI1
aI1
aI0
aI0
aI0
aI2
aI4
aa(lp520
I2
aI1
aI0
aI0
aI0
aI2
aI1
aI2
aI0
aI0
aI0
aI0
aI4
aa(lp521
I1
aI1
aI1
aI0
aI1
aI1
aI1
aI0
aI0
aI0
aI0
aI0
aI4
aa(lp522
I1
aI1
aI1
aI1
aI0
aI2
aI0
aI0
aI0
aI2
aI0
aI0
aI4
aa(lp523
I1
aI1
aI1
aI3
aI2
aI2
aI0
aI2
aI0
aI0
aI2
aI2
aI4
aa(lp524
I2
aI1
aI0
aI1
aI0
aI1
aI1
aI1
aI0
aI2
aI0
aI0
aI4
aa(lp525
I2
aI1
aI0
aI1
aI0
aI2
aI0
aI0
aI0
aI0
aI0
aI0
aI4
aa(lp526
I1
aI1
aI1
aI1
aI0
aI1
aI1
aI3
aI0
aI0
aI0
aI0
aI4
aa(lp527
I1
aI1
aI1
aI1
aI0
aI1
aI1
aI3
aI0
aI0
aI0
aI0
aI4
aa(lp528
I2
aI1
aI0
aI1
aI0
aI1
aI1
aI1
aI0
aI0
aI2
aI2
aI4
aa(lp529
I1
aI1
aI1
aI1
aI2
aI1
aI0
aI2
aI0
aI0
aI0
aI2
aI4
aa(lp530
I1
aI1
aI1
aI1
aI0
aI1
aI0
aI1
aI0
aI2
aI0
aI0
aI4
aa(lp531
I1
aI1
aI1
aI1
aI2
aI1
aI0
aI0
aI0
aI0
aI0
aI2
aI4
aa(lp532
I2
aI1
aI0
aI1
aI1
aI1
aI0
aI0
aI0
aI0
aI0
aI2
aI4
aa(lp533
I2
aI1
aI1
aI1
aI2
aI2
aI0
aI0
aI0
aI0
aI0
aI2
aI4
aa(lp534
I2
aI1
aI0
aI1
aI0
aI2
aI1
aI1
aI0
aI0
aI0
aI0
aI4
aa(lp535
I2
aI1
aI0
aI1
aI0
aI1
aI0
aI0
aI0
aI0
aI0
aI0
aI4
aa(lp536
I1
aI1
aI0
aI1
aI0
aI1
aI1
aI0
aI0
aI2
aI2
aI2
aI4
aa(lp537
I2
aI1
aI1
aI3
aI0
aI1
aI1
aI1
aI0
aI0
aI0
aI0
aI4
aa(lp538
I2
aI1
aI1
aI1
aI0
aI2
aI0
aI1
aI0
aI0
aI0
aI1
aI4
aa(lp539
I1
aI1
aI1
aI1
aI0
aI1
aI0
aI0
aI0
aI0
aI0
aI0
aI4
aa(lp540
I2
aI1
aI0
aI1
aI2
aI1
aI1
aI0
aI0
aI2
aI2
aI2
aI4
aa(lp541
I1
aI2
aI0
aI1
aI1
aI1
aI0
aI3
aI0
aI0
aI0
aI0
aI4
aa(lp542
I2
aI2
aI0
aI1
aI2
aI1
aI0
aI1
aI0
aI2
aI0
aI0
aI4
aa(lp543
I1
aI1
aI1
aI1
aI1
aI2
aI0
aI0
aI0
aI2
aI0
aI0
aI4
aa(lp544
I1
aI1
aI1
aI1
aI0
aI1
aI0
aI0
aI0
aI0
aI0
aI0
aI4
aa(lp545
I2
aI1
aI1
aI3
aI0
aI1
aI0
aI0
aI0
aI2
aI0
aI0
aI4
aa(lp546
I2
aI1
aI0
aI1
aI0
aI1
aI0
aI0
aI0
aI2
aI2
aI2
aI4
aa(lp547
I2
aI1
aI1
aI1
aI2
aI1
aI0
aI0
aI0
aI0
aI0
aI0
aI4
aa(lp548
I2
aI1
aI1
aI3
aI2
aI1
aI0
aI0
aI0
aI0
aI0
aI0
aI4
aa(lp549
I1
aI1
aI1
aI1
aI0
aI1
aI0
aI0
aI0
aI2
aI2
aI2
aI4
aa(lp550
I2
aI1
aI1
aI1
aI1
aI1
aI0
aI0
aI0
aI0
aI2
aI2
aI4
aa(lp551
I1
aI1
aI1
aI1
aI0
aI1
aI0
aI0
aI0
aI2
aI2
aI0
aI4
aa(lp552
I1
aI1
aI1
aI1
aI2
aI1
aI0
aI0
aI0
aI0
aI2
aI2
aI4
aa(lp553
I2
aI1
aI1
aI1
aI2
aI2
aI0
aI0
aI0
aI0
aI0
aI0
aI4
aa(lp554
I2
aI1
aI1
aI1
aI0
aI1
aI0
aI0
aI0
aI2
aI0
aI0
aI4
aa(lp555
I1
aI1
aI1
aI1
aI0
aI1
aI0
aI0
aI0
aI2
aI2
aI2
aI4
aa(lp556
I0
aI1
aI0
aI0
aI0
aI1
aI1
aI0
aI0
aI0
aI0
aI0
aI4
aa(lp557
I1
aI1
aI1
aI3
aI1
aI1
aI0
aI0
aI0
aI0
aI0
aI0
aI4
aa(lp558
I1
aI1
aI1
aI3
aI2
aI2
aI0
aI0
aI0
aI2
aI0
aI0
aI4
aa(lp559
I2
aI1
aI1
aI1
aI0
aI1
aI0
aI0
aI0
aI2
aI0
aI0
aI4
aa(lp560
I1
aI1
aI1
aI1
aI0
aI1
aI0
aI0
aI0
aI2
aI0
aI0
aI4
aa(lp561
I1
aI1
aI1
aI1
aI0
aI1
aI0
aI1
aI0
aI0
aI2
aI2
aI4
aa(lp562
I2
aI1
aI0
aI1
aI1
aI2
aI0
aI1
aI0
aI0
aI0
aI0
aI4
aa(lp563
I2
aI1
aI1
aI1
aI0
aI1
aI1
aI0
aI0
aI0
aI0
aI0
aI4
aa(lp564
I1
aI1
aI1
aI1
aI2
aI1
aI1
aI0
aI0
aI2
aI0
aI0
aI4
aa(lp565
I2
aI1
aI1
aI1
aI0
aI1
aI0
aI0
aI0
aI0
aI0
aI0
aI4
aa(lp566
I1
aI1
aI1
aI1
aI2
aI1
aI0
aI0
aI0
aI0
aI0
aI0
aI4
aa(lp567
I1
aI1
aI1
aI1
aI0
aI2
aI0
aI0
aI0
aI0
aI0
aI0
aI4
aa(lp568
I2
aI1
aI1
aI1
aI0
aI1
aI0
aI0
aI0
aI0
aI0
aI2
aI4
aa(lp569
I2
aI1
aI1
aI1
aI0
aI1
aI0
aI0
aI0
aI0
aI0
aI0
aI4
aa(lp570
I2
aI1
aI1
aI1
aI1
aI1
aI0
aI0
aI0
aI2
aI1
aI0
aI4
aa(lp571
I1
aI1
aI1
aI0
aI0
aI1
aI0
aI0
aI0
aI2
aI0
aI0
aI4
aa(lp572
I2
aI1
aI0
aI1
aI0
aI1
aI0
aI0
aI0
aI2
aI0
aI0
aI4
aa(lp573
I1
aI1
aI1
aI1
aI2
aI1
aI0
aI1
aI0
aI0
aI0
aI0
aI4
aa(lp574
I2
aI1
aI0
aI1
aI1
aI1
aI1
aI1
aI0
aI2
aI0
aI0
aI4
aa(lp575
I2
aI1
aI1
aI3
aI0
aI1
aI0
aI0
aI0
aI2
aI0
aI0
aI4
aa(lp576
I1
aI1
aI1
aI1
aI0
aI1
aI0
aI0
aI0
aI2
aI0
aI0
aI4
aa(lp577
I2
aI1
aI1
aI1
aI1
aI1
aI0
aI0
aI0
aI2
aI0
aI0
aI4
aa(lp578
I2
aI1
aI1
aI1
aI2
aI1
aI0
aI0
aI0
aI0
aI0
aI2
aI4
aa(lp579
I2
aI0
aI0
aI1
aI2
aI1
aI0
aI0
aI0
aI0
aI0
aI0
aI4
aa(lp580
I2
aI1
aI1
aI1
aI0
aI1
aI0
aI0
aI0
aI2
aI0
aI0
aI4
aa(lp581
I1
aI1
aI1
aI1
aI0
aI1
aI0
aI1
aI0
aI2
aI0
aI0
aI4
aa(lp582
I1
aI1
aI1
aI1
aI0
aI2
aI0
aI0
aI0
aI0
aI0
aI0
aI4
aa(lp583
I1
aI1
aI1
aI1
aI0
aI1
aI0
aI0
aI0
aI0
aI0
aI0
aI4
aa(lp584
I2
aI1
aI0
aI1
aI2
aI1
aI1
aI0
aI0
aI0
aI0
aI0
aI4
aa(lp585
I2
aI1
aI1
aI3
aI2
aI2
aI0
aI0
aI0
aI0
aI0
aI0
aI4
aa(lp586
I1
aI1
aI1
aI1
aI1
aI1
aI0
aI0
aI0
aI0
aI0
aI0
aI4
aa(lp587
I1
aI1
aI1
aI1
aI0
aI1
aI0
aI0
aI0
aI0
aI2
aI2
aI4
aa(lp588
I1
aI1
aI1
aI1
aI0
aI2
aI0
aI0
aI0
aI0
aI0
aI0
aI4
aa(lp589
I2
aI1
aI1
aI1
aI0
aI1
aI0
aI0
aI0
aI0
aI0
aI2
aI4
aa(lp590
I2
aI1
aI1
aI1
aI0
aI1
aI0
aI0
aI0
aI0
aI0
aI0
aI4
aa(lp591
I0
aI1
aI1
aI1
aI0
aI1
aI1
aI0
aI0
aI2
aI0
aI0
aI4
aa(lp592
I1
aI1
aI1
aI3
aI0
aI1
aI0
aI0
aI0
aI2
aI2
aI2
aI4
aa(lp593
I2
aI1
aI1
aI1
aI1
aI1
aI0
aI0
aI0
aI0
aI0
aI0
aI4
aa(lp594
I2
aI1
aI1
aI1
aI0
aI1
aI0
aI0
aI0
aI2
aI2
aI0
aI4
aa(lp595
I2
aI1
aI1
aI1
aI0
aI1
aI0
aI0
aI0
aI0
aI2
aI2
aI4
aa(lp596
I2
aI1
aI1
aI1
aI0
aI1
aI0
aI0
aI0
aI2
aI0
aI0
aI4
aa(lp597
I1
aI1
aI1
aI1
aI0
aI1
aI0
aI0
aI0
aI2
aI2
aI2
aI4
aa(lp598
I2
aI1
aI1
aI3
aI0
aI1
aI0
aI0
aI0
aI0
aI0
aI0
aI4
aa(lp599
I2
aI1
aI1
aI0
aI2
aI1
aI0
aI0
aI0
aI0
aI0
aI0
aI4
aa(lp600
I2
aI1
aI1
aI3
aI0
aI1
aI0
aI0
aI0
aI2
aI2
aI0
aI4
aa(lp601
I1
aI1
aI1
aI1
aI1
aI1
aI0
aI2
aI0
aI1
aI0
aI0
aI4
aa(lp602
I1
aI1
aI1
aI1
aI2
aI1
aI0
aI0
aI0
aI0
aI0
aI1
aI4
aa(lp603
I2
aI1
aI1
aI1
aI2
aI1
aI0
aI0
aI0
aI0
aI0
aI2
aI4
aa(lp604
I1
aI1
aI1
aI1
aI0
aI1
aI0
aI0
aI0
aI0
aI0
aI2
aI4
aa(lp605
I2
aI1
aI1
aI1
aI2
aI1
aI0
aI0
aI0
aI0
aI0
aI0
aI4
aa(lp606
I2
aI0
aI1
aI1
aI0
aI1
aI2
aI0
aI0
aI0
aI0
aI0
aI4
aa(lp607
I2
aI1
aI1
aI1
aI0
aI1
aI0
aI0
aI0
aI2
aI0
aI0
aI4
aa(lp608
I2
aI1
aI1
aI3
aI0
aI1
aI1
aI2
aI0
aI0
aI0
aI0
aI4
aa(lp609
I2
aI1
aI1
aI1
aI0
aI1
aI1
aI0
aI0
aI2
aI0
aI0
aI4
aa(lp610
I2
aI1
aI1
aI3
aI0
aI1
aI0
aI0
aI0
aI2
aI0
aI1
aI4
aa(lp611
I1
aI1
aI1
aI1
aI1
aI2
aI0
aI0
aI0
aI2
aI0
aI0
aI4
aa(lp612
I1
aI1
aI1
aI1
aI0
aI1
aI0
aI0
aI0
aI0
aI0
aI0
aI4
aa(lp613
I2
aI1
aI1
aI3
aI0
aI1
aI0
aI0
aI0
aI2
aI0
aI0
aI4
aa(lp614
I1
aI1
aI0
aI1
aI0
aI1
aI0
aI0
aI0
aI2
aI2
aI2
aI4
aa(lp615
I2
aI1
aI1
aI1
aI2
aI1
aI0
aI0
aI0
aI0
aI0
aI0
aI4
aa(lp616
I2
aI1
aI1
aI3
aI2
aI1
aI0
aI0
aI0
aI0
aI0
aI0
aI4
aa(lp617
I1
aI1
aI1
aI1
aI0
aI1
aI0
aI0
aI0
aI2
aI2
aI2
aI4
aa(lp618
I1
aI1
aI1
aI1
aI1
aI1
aI0
aI0
aI0
aI0
aI2
aI2
aI4
aa(lp619
I1
aI1
aI1
aI1
aI0
aI1
aI0
aI0
aI0
aI2
aI2
aI0
aI4
aa(lp620
I1
aI1
aI1
aI1
aI2
aI1
aI0
aI0
aI0
aI0
aI2
aI2
aI4
aa(lp621
I2
aI1
aI1
aI1
aI2
aI2
aI0
aI0
aI0
aI0
aI0
aI0
aI4
aa(lp622
I2
aI1
aI1
aI1
aI0
aI1
aI0
aI0
aI0
aI2
aI0
aI0
aI4
aa(lp623
I1
aI1
aI1
aI1
aI0
aI1
aI0
aI0
aI0
aI2
aI2
aI2
aI4
aa(lp624
I0
aI1
aI0
aI0
aI0
aI1
aI1
aI0
aI0
aI0
aI0
aI0
aI4
aa(lp625
I1
aI1
aI1
aI3
aI1
aI1
aI0
aI0
aI0
aI0
aI0
aI0
aI4
aa(lp626
I1
aI1
aI1
aI3
aI2
aI2
aI0
aI0
aI0
aI2
aI0
aI0
aI4
aa(lp627
I2
aI1
aI1
aI1
aI0
aI1
aI0
aI0
aI0
aI2
aI0
aI0
aI4
aa(lp628
I1
aI1
aI1
aI1
aI0
aI1
aI0
aI0
aI0
aI2
aI0
aI0
aI4
aa(lp629
I1
aI1
aI1
aI1
aI0
aI1
aI0
aI1
aI0
aI0
aI2
aI2
aI4
aa(lp630
I2
aI1
aI0
aI1
aI1
aI2
aI0
aI1
aI0
aI0
aI0
aI0
aI4
aa(lp631
I2
aI1
aI1
aI1
aI0
aI1
aI1
aI0
aI0
aI0
aI0
aI0
aI4
aa(lp632
I1
aI1
aI1
aI1
aI2
aI1
aI1
aI0
aI0
aI2
aI0
aI0
aI4
aa(lp633
I1
aI1
aI0
aI1
aI0
aI1
aI0
aI0
aI0
aI0
aI0
aI0
aI4
aa(lp634
I1
aI1
aI0
aI1
aI0
aI1
aI0
aI0
aI0
aI2
aI0
aI0
aI4
aa(lp635
I1
aI1
aI0
aI1
aI0
aI1
aI0
aI0
aI0
aI2
aI2
aI0
aI4
aa(lp636
I1
aI1
aI0
aI1
aI0
aI1
aI0
aI0
aI0
aI0
aI0
aI0
aI4
aa(lp637
I1
aI1
aI0
aI1
aI0
aI1
aI0
aI0
aI0
aI0
aI0
aI0
aI4
aa(lp638
I1
aI1
aI0
aI1
aI0
aI1
aI0
aI0
aI0
aI2
aI0
aI0
aI4
aa(lp639
I1
aI1
aI0
aI1
aI0
aI1
aI0
aI0
aI0
aI0
aI0
aI0
aI4
aa(lp640
I1
aI1
aI0
aI1
aI0
aI1
aI0
aI0
aI0
aI0
aI2
aI2
aI4
aa(lp641
I1
aI1
aI0
aI1
aI0
aI1
aI0
aI0
aI0
aI0
aI0
aI0
aI4
aa(lp642
I1
aI1
aI0
aI1
aI0
aI1
aI0
aI0
aI0
aI2
aI0
aI0
aI4
aa(lp643
I1
aI1
aI0
aI1
aI0
aI1
aI0
aI0
aI0
aI2
aI0
aI0
aI4
aa(lp644
I1
aI1
aI0
aI1
aI0
aI1
aI0
aI0
aI0
aI2
aI0
aI0
aI4
aa(lp645
I1
aI1
aI0
aI1
aI0
aI1
aI0
aI0
aI0
aI2
aI0
aI0
aI4
aa(lp646
I1
aI1
aI0
aI1
aI0
aI1
aI0
aI0
aI0
aI2
aI0
aI0
aI4
aa(lp647
I1
aI1
aI0
aI1
aI0
aI1
aI0
aI0
aI0
aI0
aI0
aI2
aI4
aa(lp648
I1
aI1
aI0
aI1
aI0
aI1
aI0
aI0
aI0
aI2
aI0
aI0
aI4
aa(lp649
I1
aI1
aI0
aI1
aI0
aI1
aI0
aI0
aI0
aI2
aI0
aI0
aI4
aa(lp650
I1
aI1
aI0
aI1
aI0
aI1
aI0
aI0
aI0
aI2
aI0
aI0
aI4
aa(lp651
I1
aI1
aI0
aI1
aI0
aI1
aI0
aI0
aI0
aI2
aI0
aI0
aI4
aa(lp652
I1
aI1
aI0
aI1
aI0
aI1
aI0
aI0
aI0
aI2
aI0
aI0
aI4
aa(lp653
I1
aI1
aI0
aI1
aI0
aI1
aI0
aI0
aI0
aI2
aI0
aI0
aI4
aa(lp654
I1
aI1
aI0
aI1
aI0
aI1
aI0
aI0
aI0
aI2
aI0
aI0
aI4
aa(lp655
I1
aI1
aI0
aI1
aI0
aI1
aI1
aI2
aI0
aI0
aI0
aI2
aI4
aa(lp656
I1
aI1
aI1
aI3
aI0
aI1
aI1
aI0
aI0
aI0
aI0
aI2
aI4
aa(lp657
I1
aI1
aI0
aI1
aI0
aI1
aI0
aI0
aI0
aI0
aI0
aI2
aI4
aa(lp658
I1
aI0
aI1
aI1
aI2
aI1
aI0
aI0
aI0
aI0
aI2
aI2
aI4
aa(lp659
I1
aI1
aI0
aI1
aI0
aI1
aI0
aI3
aI0
aI2
aI0
aI0
aI4
aa(lp660
I1
aI1
aI0
aI1
aI0
aI1
aI0
aI0
aI0
aI2
aI2
aI0
aI4
aa(lp661
I2
aI1
aI0
aI1
aI1
aI1
aI0
aI2
aI0
aI0
aI0
aI2
aI4
aa(lp662
I1
aI1
aI0
aI1
aI0
aI2
aI1
aI1
aI0
aI0
aI0
aI0
aI4
aa(lp663
I2
aI1
aI1
aI1
aI2
aI1
aI0
aI0
aI0
aI0
aI0
aI0
aI4
aa(lp664
I1
aI1
aI1
aI1
aI0
aI2
aI1
aI3
aI0
aI2
aI2
aI0
aI4
aa(lp665
I2
aI1
aI1
aI1
aI2
aI1
aI0
aI1
aI0
aI0
aI0
aI2
aI4
aa(lp666
I0
aI1
aI1
aI1
aI0
aI2
aI1
aI2
aI0
aI0
aI0
aI0
aI4
aa(lp667
I1
aI1
aI1
aI1
aI0
aI1
aI1
aI2
aI0
aI0
aI0
aI0
aI4
aa(lp668
I2
aI1
aI1
aI1
aI0
aI1
aI1
aI3
aI0
aI2
aI0
aI0
aI4
aa(lp669
I2
aI1
aI0
aI1
aI0
aI1
aI0
aI0
aI0
aI0
aI0
aI0
aI4
aa(lp670
I1
aI1
aI1
aI1
aI2
aI1
aI0
aI0
aI0
aI0
aI0
aI0
aI4
aa(lp671
I1
aI1
aI0
aI1
aI2
aI1
aI1
aI0
aI0
aI0
aI0
aI0
aI4
aa(lp672
I1
aI1
aI1
aI1
aI0
aI1
aI0
aI0
aI0
aI2
aI0
aI0
aI4
aa(lp673
I1
aI1
aI1
aI1
aI0
aI1
aI0
aI0
aI0
aI0
aI0
aI0
aI4
aa(lp674
I2
aI1
aI1
aI1
aI0
aI1
aI0
aI0
aI0
aI0
aI0
aI0
aI4
aa(lp675
I2
aI1
aI1
aI1
aI0
aI1
aI1
aI0
aI0
aI2
aI2
aI2
aI4
aa(lp676
I2
aI1
aI1
aI1
aI2
aI1
aI0
aI0
aI0
aI0
aI0
aI2
aI4
aa(lp677
I2
aI1
aI0
aI1
aI0
aI2
aI0
aI0
aI0
aI2
aI0
aI0
aI4
aa(lp678
I2
aI0
aI0
aI1
aI0
aI1
aI1
aI0
aI0
aI2
aI0
aI0
aI4
aa(lp679
I1
aI1
aI1
aI1
aI0
aI1
aI0
aI0
aI0
aI0
aI0
aI0
aI4
aa(lp680
I1
aI1
aI1
aI1
aI0
aI1
aI0
aI0
aI0
aI2
aI2
aI0
aI4
aa(lp681
I1
aI1
aI1
aI3
aI0
aI1
aI1
aI1
aI0
aI0
aI0
aI0
aI4
aa(lp682
I1
aI1
aI1
aI1
aI0
aI1
aI0
aI0
aI0
aI0
aI0
aI2
aI4
aa(lp683
I1
aI1
aI1
aI1
aI1
aI1
aI0
aI0
aI0
aI0
aI0
aI2
aI4
aa(lp684
I1
aI2
aI1
aI1
aI0
aI1
aI1
aI0
aI0
aI2
aI2
aI2
aI4
aa(lp685
I0
aI1
aI1
aI1
aI0
aI1
aI0
aI0
aI0
aI2
aI0
aI0
aI4
aa(lp686
I1
aI1
aI1
aI1
aI0
aI1
aI0
aI0
aI0
aI2
aI0
aI0
aI4
aa(lp687
I1
aI1
aI1
aI1
aI0
aI1
aI0
aI0
aI0
aI0
aI0
aI2
aI4
aa(lp688
I2
aI1
aI1
aI1
aI0
aI1
aI1
aI0
aI0
aI0
aI0
aI2
aI4
aa(lp689
I1
aI1
aI1
aI1
aI0
aI1
aI1
aI0
aI0
aI2
aI2
aI0
aI4
aa(lp690
I2
aI1
aI1
aI1
aI0
aI2
aI0
aI0
aI0
aI2
aI2
aI0
aI4
aa(lp691
I1
aI1
aI1
aI1
aI2
aI1
aI0
aI0
aI0
aI2
aI2
aI0
aI4
aa(lp692
I0
aI2
aI0
aI1
aI1
aI1
aI1
aI2
aI0
aI2
aI0
aI0
aI4
aa(lp693
I1
aI1
aI1
aI1
aI0
aI1
aI0
aI0
aI0
aI0
aI0
aI2
aI4
aa(lp694
I1
aI1
aI1
aI1
aI2
aI1
aI0
aI0
aI0
aI0
aI0
aI0
aI4
aa(lp695
I2
aI1
aI1
aI1
aI1
aI1
aI0
aI0
aI0
aI2
aI0
aI1
aI4
aa(lp696
I1
aI2
aI1
aI1
aI0
aI2
aI1
aI0
aI0
aI2
aI0
aI0
aI4
aa(lp697
I2
aI1
aI1
aI1
aI0
aI1
aI0
aI0
aI0
aI2
aI2
aI2
aI4
aa(lp698
I1
aI1
aI0
aI1
aI0
aI1
aI0
aI0
aI0
aI0
aI0
aI0
aI4
aa(lp699
I1
aI1
aI1
aI1
aI0
aI1
aI1
aI0
aI0
aI0
aI0
aI2
aI4
aa(lp700
I1
aI1
aI1
aI0
aI0
aI1
aI1
aI2
aI0
aI0
aI0
aI0
aI4
aa(lp701
I2
aI1
aI1
aI1
aI0
aI1
aI0
aI0
aI0
aI0
aI0
aI0
aI4
aa(lp702
I1
aI1
aI0
aI1
aI0
aI2
aI0
aI0
aI0
aI0
aI0
aI2
aI4
aa(lp703
I1
aI2
aI0
aI1
aI1
aI2
aI1
aI2
aI0
aI0
aI0
aI0
aI4
aa(lp704
I0
aI1
aI0
aI1
aI0
aI2
aI1
aI0
aI0
aI2
aI0
aI0
aI4
aa(lp705
I1
aI2
aI1
aI1
aI0
aI2
aI0
aI0
aI0
aI0
aI0
aI2
aI4
aa(lp706
I2
aI1
aI1
aI1
aI1
aI1
aI0
aI0
aI0
aI0
aI0
aI0
aI4
aa(lp707
I1
aI1
aI1
aI1
aI2
aI1
aI0
aI0
aI0
aI2
aI0
aI0
aI4
aa(lp708
I0
aI1
aI1
aI1
aI0
aI1
aI0
aI0
aI0
aI0
aI0
aI2
aI4
aa(lp709
I1
aI1
aI1
aI1
aI0
aI1
aI1
aI1
aI0
aI2
aI2
aI0
aI4
aa(lp710
I1
aI0
aI1
aI3
aI0
aI2
aI1
aI0
aI0
aI0
aI0
aI0
aI4
aa(lp711
I1
aI1
aI0
aI1
aI0
aI1
aI1
aI2
aI0
aI2
aI0
aI0
aI4
aa(lp712
I0
aI1
aI1
aI1
aI2
aI1
aI0
aI0
aI0
aI2
aI2
aI1
aI4
aa(lp713
I1
aI1
aI0
aI1
aI1
aI1
aI1
aI0
aI0
aI2
aI2
aI0
aI4
aa(lp714
I2
aI1
aI0
aI1
aI0
aI2
aI1
aI0
aI0
aI2
aI0
aI0
aI4
aa(lp715
I1
aI1
aI1
aI1
aI2
aI1
aI0
aI0
aI0
aI2
aI0
aI0
aI4
aa(lp716
I1
aI1
aI1
aI1
aI2
aI1
aI0
aI0
aI0
aI0
aI0
aI0
aI4
aa(lp717
I1
aI1
aI1
aI1
aI0
aI2
aI0
aI2
aI0
aI0
aI0
aI0
aI4
aa(lp718
I1
aI1
aI0
aI1
aI2
aI1
aI1
aI1
aI0
aI1
aI0
aI0
aI4
aa(lp719
I1
aI0
aI0
aI1
aI0
aI2
aI0
aI0
aI0
aI0
aI2
aI2
aI4
aa(lp720
I1
aI1
aI1
aI1
aI0
aI1
aI0
aI0
aI0
aI0
aI0
aI0
aI4
aa(lp721
I2
aI1
aI1
aI1
aI0
aI1
aI1
aI0
aI0
aI0
aI0
aI2
aI4
aa(lp722
I1
aI1
aI1
aI1
aI0
aI1
aI0
aI0
aI0
aI2
aI0
aI0
aI4
aa(lp723
I1
aI1
aI1
aI1
aI0
aI1
aI0
aI0
aI0
aI0
aI0
aI2
aI4
aa(lp724
I1
aI1
aI0
aI1
aI0
aI1
aI1
aI0
aI0
aI2
aI2
aI0
aI4
aa(lp725
I1
aI1
aI1
aI1
aI1
aI1
aI0
aI0
aI0
aI0
aI0
aI0
aI4
aa(lp726
I2
aI1
aI1
aI1
aI0
aI1
aI0
aI0
aI0
aI0
aI0
aI0
aI4
aa(lp727
I1
aI1
aI1
aI1
aI2
aI1
aI0
aI0
aI0
aI0
aI0
aI0
aI4
aa(lp728
I1
aI1
aI1
aI1
aI0
aI2
aI0
aI0
aI0
aI0
aI0
aI0
aI4
aa(lp729
I2
aI1
aI1
aI1
aI0
aI1
aI0
aI0
aI0
aI0
aI0
aI2
aI4
aa(lp730
I2
aI1
aI1
aI1
aI0
aI1
aI0
aI0
aI0
aI0
aI0
aI0
aI4
aa(lp731
I2
aI1
aI1
aI1
aI1
aI1
aI0
aI0
aI0
aI2
aI1
aI0
aI4
aa(lp732
I1
aI1
aI1
aI0
aI0
aI1
aI0
aI0
aI0
aI2
aI0
aI0
aI4
aa(lp733
I2
aI1
aI0
aI1
aI0
aI1
aI0
aI0
aI0
aI2
aI0
aI0
aI4
aa(lp734
I1
aI1
aI1
aI1
aI2
aI1
aI0
aI1
aI0
aI0
aI0
aI0
aI4
aa(lp735
I2
aI1
aI0
aI1
aI1
aI1
aI1
aI1
aI0
aI2
aI0
aI0
aI4
aa(lp736
I2
aI1
aI1
aI3
aI0
aI1
aI0
aI0
aI0
aI2
aI0
aI0
aI4
aa(lp737
I1
aI1
aI1
aI1
aI0
aI1
aI0
aI0
aI0
aI2
aI0
aI0
aI4
aa(lp738
I2
aI1
aI1
aI1
aI1
aI1
aI0
aI0
aI0
aI2
aI0
aI0
aI4
aa(lp739
I2
aI1
aI1
aI1
aI2
aI1
aI0
aI0
aI0
aI0
aI0
aI2
aI4
aa(lp740
I2
aI0
aI0
aI1
aI2
aI1
aI0
aI0
aI0
aI0
aI0
aI0
aI4
aa(lp741
I2
aI1
aI1
aI1
aI0
aI1
aI0
aI0
aI0
aI2
aI0
aI0
aI4
aa(lp742
I1
aI1
aI1
aI1
aI0
aI1
aI0
aI1
aI0
aI2
aI0
aI0
aI4
aa(lp743
I1
aI1
aI1
aI1
aI0
aI2
aI0
aI0
aI0
aI0
aI0
aI0
aI4
aa(lp744
I1
aI1
aI1
aI1
aI0
aI1
aI0
aI0
aI0
aI0
aI0
aI0
aI4
aa(lp745
I1
aI1
aI0
aI1
aI2
aI1
aI1
aI0
aI0
aI0
aI0
aI0
aI4
aa(lp746
I2
aI1
aI1
aI3
aI2
aI2
aI0
aI0
aI0
aI0
aI0
aI0
aI4
aa(lp747
I1
aI1
aI1
aI1
aI1
aI1
aI0
aI0
aI0
aI0
aI0
aI0
aI4
aa(lp748
I1
aI1
aI1
aI1
aI0
aI1
aI0
aI0
aI0
aI0
aI2
aI2
aI4
aa(lp749
I1
aI1
aI1
aI1
aI2
aI1
aI0
aI0
aI0
aI0
aI0
aI0
aI4
aa(lp750
I1
aI1
aI1
aI1
aI1
aI1
aI0
aI0
aI0
aI2
aI2
aI2
aI4
aa(lp751
I2
aI1
aI1
aI1
aI0
aI1
aI0
aI0
aI0
aI2
aI0
aI0
aI4
aa(lp752
I1
aI1
aI1
aI1
aI0
aI1
aI1
aI0
aI0
aI2
aI0
aI0
aI4
aa(lp753
I1
aI1
aI1
aI3
aI2
aI1
aI0
aI0
aI0
aI0
aI0
aI0
aI4
aa(lp754
I2
aI1
aI1
aI1
aI0
aI1
aI0
aI0
aI0
aI0
aI0
aI0
aI4
aa(lp755
I1
aI1
aI1
aI1
aI0
aI2
aI0
aI0
aI0
aI0
aI0
aI2
aI4
aa(lp756
I2
aI1
aI1
aI1
aI0
aI1
aI0
aI0
aI0
aI0
aI0
aI2
aI4
aa(lp757
I2
aI1
aI1
aI1
aI0
aI1
aI0
aI0
aI0
aI2
aI2
aI0
aI4
aa(lp758
I1
aI1
aI1
aI1
aI0
aI1
aI0
aI0
aI0
aI0
aI0
aI0
aI4
aa(lp759
I1
aI1
aI1
aI3
aI0
aI1
aI0
aI0
aI0
aI0
aI0
aI0
aI4
aa(lp760
I2
aI1
aI1
aI0
aI0
aI1
aI0
aI0
aI0
aI0
aI2
aI2
aI4
aa(lp761
I2
aI2
aI1
aI1
aI2
aI1
aI1
aI0
aI0
aI2
aI0
aI0
aI4
aa(lp762
I1
aI1
aI1
aI3
aI0
aI2
aI0
aI0
aI0
aI2
aI0
aI0
aI4
aa(lp763
I2
aI1
aI1
aI1
aI0
aI1
aI0
aI0
aI0
aI2
aI2
aI0
aI4
aa(lp764
I2
aI1
aI1
aI1
aI0
aI2
aI1
aI0
aI0
aI2
aI2
aI2
aI4
aa(lp765
I2
aI1
aI1
aI1
aI0
aI1
aI0
aI0
aI0
aI2
aI2
aI0
aI4
aa(lp766
I1
aI0
aI1
aI1
aI0
aI1
aI0
aI0
aI0
aI0
aI0
aI2
aI4
aa(lp767
I2
aI1
aI1
aI3
aI0
aI1
aI0
aI0
aI0
aI0
aI0
aI0
aI4
aa(lp768
I1
aI1
aI1
aI1
aI0
aI1
aI0
aI0
aI0
aI0
aI0
aI0
aI4
aa(lp769
I2
aI1
aI1
aI1
aI0
aI1
aI0
aI0
aI0
aI1
aI0
aI0
aI4
aa(lp770
I2
aI0
aI1
aI1
aI0
aI1
aI1
aI0
aI0
aI2
aI0
aI0
aI4
aa(lp771
I2
aI1
aI1
aI3
aI0
aI1
aI0
aI0
aI0
aI1
aI0
aI0
aI4
aa(lp772
I2
aI1
aI1
aI1
aI1
aI1
aI1
aI0
aI0
aI2
aI0
aI0
aI4
aa(lp773
I1
aI1
aI1
aI1
aI0
aI1
aI0
aI0
aI0
aI0
aI2
aI2
aI4
aa(lp774
I1
aI1
aI1
aI1
aI2
aI1
aI0
aI0
aI0
aI2
aI2
aI0
aI4
aa(lp775
I0
aI1
aI1
aI1
aI0
aI1
aI0
aI0
aI0
aI2
aI0
aI0
aI4
aa(lp776
I1
aI1
aI1
aI1
aI0
aI1
aI0
aI0
aI0
aI2
aI2
aI2
aI4
aa(lp777
I1
aI1
aI1
aI1
aI0
aI2
aI0
aI0
aI0
aI0
aI0
aI1
aI4
aa(lp778
I0
aI1
aI1
aI1
aI0
aI1
aI0
aI0
aI0
aI0
aI0
aI0
aI4
aa(lp779
I1
aI1
aI1
aI1
aI2
aI2
aI0
aI0
aI0
aI0
aI0
aI1
aI4
aa(lp780
I2
aI1
aI1
aI1
aI2
aI1
aI0
aI0
aI0
aI2
aI2
aI0
aI4
aa(lp781
I2
aI0
aI1
aI1
aI0
aI1
aI1
aI0
aI0
aI2
aI2
aI0
aI4
aa(lp782
I1
aI2
aI1
aI1
aI0
aI2
aI0
aI0
aI0
aI0
aI0
aI1
aI4
aa(lp783
I2
aI1
aI1
aI1
aI2
aI1
aI0
aI0
aI0
aI1
aI0
aI0
aI4
aa(lp784
I2
aI1
aI1
aI1
aI1
aI1
aI0
aI0
aI0
aI1
aI0
aI0
aI4
aa(lp785
I1
aI1
aI1
aI1
aI0
aI1
aI0
aI0
aI0
aI2
aI2
aI0
aI4
aa(lp786
I1
aI1
aI1
aI1
aI0
aI1
aI0
aI0
aI0
aI1
aI1
aI1
aI4
aa(lp787
I2
aI1
aI1
aI3
aI0
aI1
aI0
aI0
aI0
aI0
aI0
aI2
aI4
aa(lp788
I2
aI1
aI1
aI1
aI0
aI1
aI0
aI0
aI0
aI0
aI0
aI2
aI4
aa(lp789
I2
aI1
aI1
aI1
aI1
aI1
aI0
aI0
aI0
aI1
aI1
aI1
aI4
aa(lp790
I2
aI1
aI0
aI1
aI0
aI2
aI0
aI0
aI0
aI1
aI1
aI1
aI4
aa(lp791
I2
aI1
aI1
aI3
aI1
aI1
aI0
aI0
aI0
aI1
aI2
aI2
aI4
aa(lp792
I2
aI1
aI1
aI3
aI0
aI1
aI0
aI0
aI0
aI1
aI1
aI1
aI4
aa(lp793
I1
aI1
aI1
aI1
aI1
aI1
aI0
aI0
aI0
aI2
aI2
aI2
aI4
aa(lp794
I1
aI1
aI0
aI1
aI0
aI1
aI1
aI0
aI0
aI0
aI0
aI2
aI4
aa(lp795
I1
aI2
aI1
aI1
aI0
aI2
aI0
aI1
aI0
aI0
aI0
aI0
aI4
aa(lp796
I1
aI1
aI1
aI1
aI0
aI2
aI0
aI2
aI0
aI0
aI0
aI0
aI4
aa(lp797
I2
aI1
aI0
aI1
aI0
aI2
aI1
aI3
aI0
aI0
aI0
aI0
aI4
aa(lp798
I1
aI1
aI1
aI1
aI0
aI1
aI0
aI1
aI0
aI0
aI0
aI2
aI4
aa(lp799
I1
aI1
aI1
aI1
aI0
aI2
aI0
aI0
aI0
aI0
aI0
aI0
aI4
aa(lp800
I0
aI2
aI0
aI1
aI2
aI1
aI1
aI0
aI0
aI2
aI0
aI0
aI4
aa(lp801
I2
aI1
aI1
aI1
aI0
aI1
aI1
aI0
aI0
aI2
aI0
aI0
aI4
aa(lp802
I1
aI1
aI0
aI1
aI0
aI1
aI1
aI2
aI0
aI2
aI2
aI0
aI4
aa(lp803
I1
aI1
aI1
aI1
aI0
aI2
aI1
aI3
aI0
aI2
aI2
aI0
aI4
aa(lp804
I1
aI1
aI0
aI1
aI0
aI2
aI0
aI3
aI0
aI2
aI0
aI0
aI4
aa(lp805
I1
aI0
aI1
aI1
aI0
aI2
aI1
aI2
aI0
aI0
aI0
aI0
aI4
aa(lp806
I1
aI1
aI0
aI1
aI0
aI2
aI1
aI2
aI0
aI2
aI0
aI0
aI4
aa(lp807
I1
aI1
aI0
aI1
aI0
aI2
aI1
aI2
aI0
aI0
aI0
aI0
aI4
aa(lp808
I2
aI1
aI1
aI1
aI0
aI1
aI1
aI0
aI0
aI2
aI2
aI2
aI4
aa(lp809
I2
aI1
aI1
aI0
aI1
aI1
aI0
aI1
aI0
aI2
aI0
aI0
aI4
aa(lp810
I2
aI1
aI1
aI3
aI0
aI2
aI1
aI0
aI0
aI0
aI0
aI0
aI4
aa(lp811
I1
aI0
aI0
aI1
aI2
aI2
aI1
aI0
aI0
aI0
aI0
aI0
aI4
aa(lp812
I1
aI1
aI1
aI1
aI0
aI2
aI0
aI0
aI0
aI0
aI0
aI2
aI4
aa(lp813
I1
aI1
aI1
aI1
aI0
aI2
aI0
aI0
aI0
aI2
aI0
aI0
aI4
aa(lp814
I1
aI1
aI0
aI1
aI0
aI2
aI1
aI0
aI0
aI2
aI0
aI0
aI4
aa(lp815
I2
aI1
aI1
aI0
aI0
aI2
aI1
aI0
aI0
aI2
aI0
aI0
aI4
aa(lp816
I2
aI1
aI1
aI1
aI1
aI1
aI0
aI0
aI0
aI0
aI0
aI0
aI4
aa(lp817
I1
aI1
aI1
aI1
aI1
aI0
aI0
aI0
aI0
aI0
aI2
aI2
aI4
aa(lp818
I1
aI1
aI0
aI1
aI0
aI2
aI0
aI0
aI0
aI0
aI0
aI0
aI4
aa(lp819
I2
aI1
aI1
aI3
aI2
aI1
aI1
aI1
aI0
aI2
aI0
aI0
aI4
aa(lp820
I1
aI1
aI0
aI1
aI0
aI2
aI0
aI0
aI0
aI0
aI0
aI0
aI4
aa(lp821
I1
aI1
aI1
aI3
aI0
aI1
aI0
aI0
aI0
aI0
aI0
aI2
aI4
aa(lp822
I1
aI1
aI1
aI1
aI0
aI2
aI0
aI0
aI0
aI0
aI0
aI2
aI4
aa(lp823
I1
aI1
aI1
aI1
aI0
aI1
aI0
aI0
aI0
aI0
aI2
aI0
aI4
aa(lp824
I2
aI1
aI1
aI1
aI0
aI2
aI0
aI0
aI0
aI0
aI0
aI0
aI4
aa(lp825
I2
aI1
aI0
aI0
aI1
aI1
aI0
aI0
aI0
aI0
aI0
aI0
aI4
aa(lp826
I2
aI1
aI0
aI1
aI2
aI2
aI1
aI3
aI0
aI2
aI0
aI0
aI4
aa(lp827
I1
aI1
aI1
aI1
aI0
aI2
aI1
aI0
aI0
aI0
aI0
aI0
aI4
aa(lp828
I1
aI1
aI1
aI1
aI0
aI1
aI0
aI0
aI0
aI0
aI0
aI0
aI4
aa(lp829
I1
aI1
aI1
aI1
aI0
aI1
aI1
aI0
aI0
aI0
aI0
aI0
aI4
aa(lp830
I1
aI1
aI1
aI1
aI0
aI1
aI0
aI2
aI0
aI0
aI0
aI0
aI4
aa(lp831
I1
aI1
aI1
aI0
aI0
aI1
aI1
aI0
aI0
aI0
aI2
aI2
aI4
aa(lp832
I1
aI1
aI1
aI1
aI0
aI1
aI0
aI0
aI0
aI2
aI0
aI0
aI4
aa(lp833
I2
aI1
aI1
aI1
aI2
aI2
aI0
aI0
aI0
aI0
aI0
aI2
aI4
aa(lp834
I1
aI1
aI1
aI1
aI1
aI1
aI1
aI0
aI0
aI0
aI0
aI0
aI4
aa(lp835
I1
aI1
aI0
aI1
aI0
aI1
aI0
aI0
aI0
aI2
aI0
aI0
aI4
aa(lp836
I2
aI1
aI1
aI1
aI0
aI2
aI1
aI0
aI0
aI0
aI0
aI0
aI4
aa(lp837
I1
aI1
aI1
aI0
aI0
aI1
aI0
aI0
aI0
aI0
aI0
aI2
aI4
aa(lp838
I1
aI1
aI0
aI1
aI0
aI1
aI0
aI0
aI0
aI0
aI0
aI2
aI4
aa(lp839
I1
aI0
aI1
aI1
aI0
aI2
aI0
aI0
aI0
aI0
aI0
aI0
aI4
aa(lp840
I1
aI1
aI0
aI1
aI0
aI1
aI0
aI0
aI0
aI0
aI0
aI0
aI4
aa(lp841
I1
aI1
aI0
aI1
aI0
aI1
aI0
aI0
aI0
aI0
aI0
aI2
aI4
aa(lp842
I1
aI1
aI1
aI1
aI1
aI2
aI0
aI0
aI0
aI0
aI0
aI2
aI4
aa(lp843
I1
aI1
aI0
aI1
aI0
aI1
aI1
aI0
aI0
aI0
aI0
aI2
aI4
aa(lp844
I2
aI1
aI1
aI1
aI0
aI1
aI0
aI0
aI0
aI0
aI0
aI0
aI4
aa(lp845
I2
aI1
aI1
aI1
aI0
aI1
aI0
aI0
aI0
aI0
aI0
aI0
aI4
aa(lp846
I1
aI1
aI0
aI1
aI0
aI2
aI0
aI0
aI0
aI0
aI0
aI2
aI4
aa(lp847
I1
aI2
aI0
aI1
aI1
aI2
aI1
aI2
aI0
aI0
aI0
aI0
aI4
aa(lp848
I0
aI1
aI0
aI1
aI0
aI2
aI1
aI0
aI0
aI2
aI0
aI0
aI4
aa(lp849
I1
aI2
aI1
aI1
aI0
aI2
aI0
aI0
aI0
aI0
aI0
aI2
aI4
aa(lp850
I2
aI1
aI1
aI1
aI1
aI1
aI0
aI0
aI0
aI0
aI0
aI0
aI4
aa(lp851
I1
aI1
aI1
aI1
aI2
aI1
aI0
aI0
aI0
aI2
aI0
aI0
aI4
aa(lp852
I0
aI1
aI1
aI1
aI0
aI1
aI0
aI0
aI0
aI0
aI0
aI2
aI4
aa(lp853
I1
aI1
aI1
aI1
aI0
aI1
aI1
aI1
aI0
aI2
aI2
aI0
aI4
aa(lp854
I1
aI0
aI1
aI3
aI0
aI2
aI1
aI0
aI0
aI0
aI0
aI0
aI4
aa(lp855
I1
aI1
aI0
aI1
aI0
aI2
aI1
aI2
aI0
aI2
aI0
aI0
aI4
aa(lp856
I0
aI1
aI1
aI1
aI2
aI1
aI0
aI0
aI0
aI2
aI2
aI1
aI4
aa(lp857
I1
aI1
aI0
aI1
aI1
aI1
aI1
aI0
aI0
aI2
aI2
aI0
aI4
aa(lp858
I2
aI1
aI0
aI1
aI0
aI2
aI1
aI0
aI0
aI2
aI0
aI0
aI4
aa(lp859
I1
aI1
aI1
aI1
aI2
aI1
aI0
aI0
aI0
aI2
aI0
aI0
aI4
aa(lp860
I1
aI1
aI1
aI1
aI2
aI1
aI0
aI0
aI0
aI0
aI0
aI0
aI4
aa(lp861
I1
aI1
aI1
aI1
aI0
aI2
aI0
aI2
aI0
aI0
aI0
aI0
aI4
aa(lp862
I1
aI1
aI0
aI1
aI2
aI1
aI1
aI1
aI0
aI1
aI0
aI0
aI4
aa(lp863
I1
aI0
aI0
aI1
aI0
aI2
aI0
aI0
aI0
aI0
aI2
aI2
aI4
aa(lp864
I1
aI1
aI1
aI1
aI0
aI1
aI0
aI0
aI0
aI0
aI0
aI0
aI4
aa(lp865
I2
aI1
aI1
aI1
aI0
aI1
aI1
aI0
aI0
aI0
aI0
aI2
aI4
aa(lp866
I1
aI1
aI1
aI1
aI0
aI1
aI0
aI0
aI0
aI2
aI0
aI0
aI4
aa(lp867
I1
aI1
aI1
aI1
aI0
aI1
aI0
aI0
aI0
aI0
aI0
aI2
aI4
aa(lp868
I1
aI1
aI0
aI1
aI0
aI1
aI1
aI0
aI0
aI2
aI2
aI0
aI4
aa(lp869
I1
aI1
aI1
aI1
aI1
aI1
aI0
aI0
aI0
aI0
aI0
aI0
aI4
aa(lp870
I1
aI1
aI1
aI1
aI0
aI1
aI0
aI0
aI0
aI2
aI0
aI0
aI4
aa(lp871
I1
aI1
aI1
aI1
aI2
aI1
aI0
aI0
aI0
aI2
aI0
aI2
aI4
aa(lp872
I1
aI1
aI1
aI1
aI0
aI1
aI0
aI0
aI0
aI2
aI2
aI0
aI4
aa(lp873
I2
aI1
aI1
aI1
aI1
aI2
aI0
aI0
aI0
aI2
aI0
aI0
aI4
aa(lp874
I2
aI1
aI1
aI1
aI2
aI2
aI0
aI0
aI0
aI0
aI0
aI0
aI4
aa(lp875
I2
aI1
aI0
aI1
aI0
aI1
aI1
aI0
aI0
aI0
aI0
aI0
aI4
aa(lp876
I2
aI1
aI1
aI1
aI2
aI1
aI0
aI0
aI0
aI2
aI0
aI0
aI4
aa(lp877
I2
aI1
aI1
aI3
aI0
aI1
aI0
aI0
aI0
aI2
aI0
aI0
aI4
aa(lp878
I1
aI2
aI0
aI1
aI0
aI2
aI1
aI3
aI0
aI0
aI0
aI0
aI4
aa(lp879
I2
aI1
aI1
aI3
aI0
aI2
aI0
aI0
aI0
aI2
aI0
aI0
aI4
aa(lp880
I1
aI1
aI1
aI1
aI0
aI1
aI0
aI0
aI0
aI0
aI1
aI2
aI4
aa(lp881
I2
aI1
aI1
aI1
aI0
aI2
aI0
aI1
aI0
aI0
aI0
aI1
aI4
aa(lp882
I2
aI1
aI1
aI1
aI0
aI2
aI0
aI0
aI0
aI2
aI1
aI0
aI4
aa(lp883
I2
aI1
aI0
aI1
aI2
aI1
aI0
aI0
aI0
aI2
aI0
aI0
aI4
aa(lp884
I2
aI1
aI0
aI1
aI0
aI1
aI0
aI0
aI0
aI2
aI2
aI0
aI4
aa(lp885
I2
aI1
aI1
aI1
aI0
aI1
aI0
aI0
aI0
aI1
aI1
aI1
aI4
aa(lp886
I2
aI1
aI1
aI1
aI0
aI2
aI0
aI1
aI0
aI1
aI1
aI1
aI4
aa(lp887
I2
aI1
aI1
aI1
aI0
aI1
aI0
aI0
aI0
aI1
aI1
aI1
aI4
aa(lp888
I2
aI1
aI1
aI1
aI2
aI2
aI0
aI0
aI0
aI2
aI0
aI0
aI4
aa(lp889
I1
aI1
aI1
aI1
aI0
aI1
aI0
aI0
aI0
aI1
aI1
aI1
aI4
aa(lp890
I2
aI1
aI1
aI1
aI2
aI1
aI1
aI1
aI0
aI2
aI1
aI0
aI4
aa(lp891
I2
aI1
aI1
aI1
aI2
aI1
aI0
aI0
aI0
aI2
aI2
aI0
aI4
aa(lp892
I2
aI1
aI1
aI1
aI0
aI1
aI0
aI0
aI0
aI0
aI0
aI0
aI4
aa(lp893
I2
aI1
aI1
aI1
aI2
aI1
aI0
aI0
aI0
aI0
aI0
aI0
aI4
aa(lp894
I2
aI1
aI1
aI1
aI2
aI2
aI1
aI1
aI0
aI2
aI0
aI0
aI4
aa(lp895
I1
aI1
aI1
aI1
aI0
aI2
aI0
aI0
aI0
aI0
aI0
aI0
aI4
aa(lp896
I2
aI1
aI0
aI1
aI0
aI1
aI0
aI0
aI0
aI2
aI0
aI0
aI4
aa(lp897
I1
aI1
aI0
aI1
aI2
aI2
aI0
aI0
aI0
aI2
aI0
aI0
aI4
aa(lp898
I2
aI1
aI1
aI1
aI0
aI1
aI0
aI0
aI0
aI0
aI0
aI0
aI4
aa(lp899
I1
aI1
aI1
aI1
aI2
aI2
aI0
aI0
aI0
aI0
aI0
aI0
aI4
aa(lp900
I2
aI1
aI1
aI1
aI2
aI2
aI0
aI1
aI0
aI0
aI0
aI0
aI4
aa(lp901
I1
aI1
aI1
aI3
aI1
aI2
aI0
aI0
aI0
aI2
aI2
aI2
aI4
aa(lp902
I1
aI1
aI1
aI3
aI0
aI1
aI0
aI0
aI0
aI0
aI2
aI2
aI4
aa(lp903
I1
aI1
aI0
aI1
aI0
aI1
aI0
aI0
aI0
aI2
aI1
aI0
aI4
aa(lp904
I1
aI1
aI1
aI0
aI0
aI2
aI0
aI0
aI0
aI2
aI0
aI0
aI4
aa(lp905
I2
aI1
aI1
aI0
aI0
aI2
aI0
aI0
aI0
aI0
aI0
aI0
aI4
aa(lp906
I0
aI1
aI1
aI1
aI0
aI2
aI1
aI0
aI0
aI2
aI0
aI0
aI4
aa(lp907
I2
aI1
aI1
aI1
aI2
aI1
aI0
aI0
aI0
aI1
aI0
aI0
aI4
aa(lp908
I2
aI1
aI1
aI1
aI0
aI2
aI1
aI0
aI0
aI0
aI0
aI1
aI4
aa(lp909
I1
aI1
aI1
aI3
aI1
aI1
aI0
aI0
aI0
aI0
aI0
aI0
aI4
aa(lp910
I2
aI1
aI1
aI3
aI0
aI1
aI0
aI0
aI0
aI2
aI2
aI0
aI4
aa(lp911
I1
aI1
aI1
aI3
aI0
aI1
aI0
aI0
aI0
aI1
aI1
aI1
aI4
aa(lp912
I2
aI1
aI1
aI1
aI0
aI1
aI0
aI0
aI0
aI2
aI2
aI0
aI4
aa(lp913
I1
aI1
aI1
aI1
aI0
aI2
aI0
aI0
aI0
aI0
aI0
aI0
aI4
aa(lp914
I1
aI1
aI1
aI1
aI2
aI2
aI1
aI0
aI0
aI0
aI0
aI0
aI4
aa(lp915
I2
aI1
aI1
aI1
aI0
aI1
aI1
aI2
aI0
aI2
aI2
aI2
aI4
aa(lp916
I2
aI1
aI1
aI1
aI0
aI1
aI0
aI0
aI0
aI2
aI2
aI2
aI4
aa(lp917
I0
aI1
aI1
aI1
aI2
aI2
aI1
aI2
aI0
aI0
aI0
aI2
aI4
aa(lp918
I1
aI1
aI1
aI1
aI0
aI2
aI0
aI0
aI0
aI0
aI0
aI0
aI4
aa(lp919
I1
aI1
aI1
aI1
aI0
aI2
aI0
aI1
aI0
aI0
aI0
aI0
aI4
aa(lp920
I1
aI1
aI1
aI1
aI2
aI1
aI0
aI0
aI0
aI0
aI0
aI1
aI4
aa.