(dp0
(I5
I9
tp1
(dp2
(S'1'
p3
S'0'
p4
tp5
I1199
s(g4
S'2'
p6
tp7
I0
s(g3
g3
tp8
I268
s(g3
g6
tp9
I0
s(g4
g3
tp10
I3
s(g4
g4
tp11
I121
ss(I4
I7
tp12
(dp13
(g4
g6
tp14
I9
s(g6
g6
tp15
I0
s(S'3'
p16
g4
tp17
I8
s(S'4'
p18
g3
tp19
I34
s(g16
g18
tp20
I1
s(g3
g6
tp21
I58
s(g18
g18
tp22
I0
s(g4
g16
tp23
I25
s(g6
g16
tp24
I4
s(g4
g18
tp25
I4
s(g16
g16
tp26
I27
s(g4
g4
tp27
I676
s(g6
g18
tp28
I0
s(g3
g3
tp29
I512
s(g6
g4
tp30
I0
s(g3
g18
tp31
I0
s(g18
g4
tp32
I1
s(g4
g3
tp33
I122
s(g18
g16
tp34
I20
s(g3
g4
tp35
I43
s(g6
g3
tp36
I4
s(g16
g3
tp37
I36
s(g16
g6
tp38
I2
s(g18
g6
tp39
I2
s(g3
g16
tp40
I213
ss(I1
I3
tp41
(dp42
(g4
g16
tp43
I2
s(g3
g4
tp44
I263
s(g6
g16
tp45
I0
s(g4
g6
tp46
I0
s(g6
g6
tp47
I0
s(g6
g3
tp48
I7
s(g6
g4
tp49
I18
s(g16
g4
tp50
I12
s(g3
g16
tp51
I3
s(g16
g3
tp52
I1
s(g3
g3
tp53
I483
s(g16
g6
tp54
I0
s(g3
g6
tp55
I43
s(g16
g16
tp56
I0
s(g4
g3
tp57
I25
s(g4
g4
tp58
I848
ss(I10
I11
tp59
(dp60
(g3
g4
tp61
I15
s(g4
g6
tp62
I191
s(g6
g6
tp63
I17
s(g6
g3
tp64
I1
s(g6
g4
tp65
I201
s(g3
g3
tp66
I2
s(g3
g6
tp67
I3
s(g4
g3
tp68
I14
s(g4
g4
tp69
I1387
ss(I4
I8
tp70
(dp71
(g3
g4
tp72
I408
s(g3
g3
tp73
I379
s(g6
g3
tp74
I3
s(g6
g4
tp75
I5
s(g16
g4
tp76
I44
s(g16
g3
tp77
I25
s(g18
g3
tp78
I17
s(g18
g4
tp79
I40
s(g4
g3
tp80
I420
s(g4
g4
tp81
I13
ss(I5
I6
tp82
(dp83
(g4
g16
tp84
I0
s(g3
g4
tp85
I779
s(g4
g6
tp86
I13
s(g3
g16
tp87
I7
s(g3
g3
tp88
I668
s(g3
g6
tp89
I7
s(g4
g3
tp90
I14
s(g4
g4
tp91
I95
ss(I2
I8
tp92
(dp93
(g3
g4
tp94
I330
s(g3
g3
tp95
I334
s(g6
g3
tp96
I14
s(g6
g4
tp97
I20
s(g16
g4
tp98
I1
s(g16
g3
tp99
I8
s(g18
g3
tp100
I16
s(g18
g4
tp101
I76
s(g4
g3
tp102
I477
s(g4
g4
tp103
I107
ss(I7
I11
tp104
(dp105
(g3
g4
tp106
I666
s(g4
g6
tp107
I141
s(g6
g6
tp108
I9
s(g6
g3
tp109
I1
s(g6
g4
tp110
I62
s(g16
g4
tp111
I291
s(g16
g3
tp112
I3
s(g3
g3
tp113
I7
s(g16
g6
tp114
I15
s(g3
g6
tp115
I44
s(g18
g4
tp116
I3
s(g4
g3
tp117
I6
s(g4
g4
tp118
I581
s(g18
g3
tp119
I0
s(g18
g6
tp120
I2
ss(I3
I11
tp121
(dp122
(g3
g4
tp123
I431
s(g4
g6
tp124
I104
s(g6
g6
tp125
I10
s(g6
g3
tp126
I1
s(g6
g4
tp127
I32
s(g16
g4
tp128
I5
s(g16
g3
tp129
I0
s(g3
g3
tp130
I4
s(g16
g6
tp131
I0
s(g3
g6
tp132
I81
s(g4
g3
tp133
I11
s(g4
g4
tp134
I1032
ss(I10
I12
tp135
(dp136
(g3
g4
tp137
I15
s(g4
g6
tp138
I236
s(g6
g6
tp139
I9
s(g6
g3
tp140
I0
s(g6
g4
tp141
I210
s(g3
g3
tp142
I2
s(g3
g6
tp143
I3
s(g4
g3
tp144
I21
s(g4
g4
tp145
I1335
ss(I8
I9
tp146
(dp147
(g3
g4
tp148
I689
s(g4
g6
tp149
I0
s(g3
g3
tp150
I161
s(g3
g6
tp151
I0
s(g4
g3
tp152
I2
s(g4
g4
tp153
I532
ss(I4
I12
tp154
(dp155
(g3
g4
tp156
I660
s(g4
g6
tp157
I73
s(g6
g6
tp158
I1
s(g6
g3
tp159
I0
s(g6
g4
tp160
I7
s(g16
g4
tp161
I64
s(g16
g3
tp162
I0
s(g3
g3
tp163
I13
s(g16
g6
tp164
I10
s(g3
g6
tp165
I153
s(g18
g4
tp166
I45
s(g4
g3
tp167
I7
s(g4
g4
tp168
I756
s(g18
g3
tp169
I3
s(g18
g6
tp170
I9
ss(I1
I6
tp171
(dp172
(g4
g16
tp173
I6
s(g3
g4
tp174
I114
s(g6
g16
tp175
I0
s(g4
g6
tp176
I14
s(g6
g6
tp177
I6
s(g6
g3
tp178
I4
s(g6
g4
tp179
I15
s(g16
g4
tp180
I10
s(g3
g16
tp181
I0
s(g16
g3
tp182
I2
s(g3
g3
tp183
I798
s(g16
g6
tp184
I0
s(g3
g6
tp185
I0
s(g16
g16
tp186
I1
s(g4
g3
tp187
I75
s(g4
g4
tp188
I772
ss(I2
I12
tp189
(dp190
(g3
g4
tp191
I551
s(g4
g6
tp192
I103
s(g6
g6
tp193
I6
s(g6
g3
tp194
I0
s(g6
g4
tp195
I46
s(g16
g4
tp196
I28
s(g16
g3
tp197
I0
s(g3
g3
tp198
I15
s(g16
g6
tp199
I1
s(g3
g6
tp200
I126
s(g18
g4
tp201
I84
s(g4
g3
tp202
I8
s(g4
g4
tp203
I849
s(g18
g3
tp204
I0
s(g18
g6
tp205
I12
ss(I6
I12
tp206
(dp207
(g3
g4
tp208
I786
s(g4
g6
tp209
I148
s(g6
g6
tp210
I5
s(g6
g3
tp211
I0
s(g6
g4
tp212
I15
s(g16
g4
tp213
I6
s(g16
g3
tp214
I0
s(g3
g3
tp215
I7
s(g16
g6
tp216
I1
s(g3
g6
tp217
I86
s(g4
g3
tp218
I16
s(g4
g4
tp219
I753
ss(I3
I7
tp220
(dp221
(g4
g16
tp222
I265
s(g3
g4
tp223
I408
s(g6
g16
tp224
I0
s(g4
g6
tp225
I63
s(g6
g6
tp226
I0
s(g16
g3
tp227
I2
s(g6
g3
tp228
I3
s(g6
g4
tp229
I40
s(g16
g4
tp230
I1
s(g3
g16
tp231
I28
s(g4
g18
tp232
I3
s(g3
g3
tp233
I75
s(g3
g18
tp234
I0
s(g16
g18
tp235
I0
s(g3
g6
tp236
I5
s(g16
g16
tp237
I2
s(g16
g6
tp238
I0
s(g4
g3
tp239
I607
s(g4
g4
tp240
I209
s(g6
g18
tp241
I0
ss(I2
I5
tp242
(dp243
(g3
g4
tp244
I83
s(g3
g3
tp245
I598
s(g6
g3
tp246
I34
s(g6
g4
tp247
I6
s(g16
g4
tp248
I0
s(g16
g3
tp249
I16
s(g18
g3
tp250
I83
s(g18
g4
tp251
I10
s(g4
g3
tp252
I736
s(g4
g4
tp253
I25
ss(I1
I11
tp254
(dp255
(g3
g4
tp256
I738
s(g4
g6
tp257
I44
s(g6
g6
tp258
I2
s(g6
g3
tp259
I0
s(g6
g4
tp260
I23
s(g16
g4
tp261
I13
s(g16
g3
tp262
I0
s(g3
g3
tp263
I9
s(g16
g6
tp264
I0
s(g3
g6
tp265
I165
s(g4
g3
tp266
I8
s(g4
g4
tp267
I823
ss(I5
I8
tp268
(dp269
(g3
g4
tp270
I470
s(g4
g3
tp271
I55
s(g3
g3
tp272
I697
s(g4
g4
tp273
I63
ss(I1
I2
tp274
(dp275
(g4
g16
tp276
I0
s(g3
g4
tp277
I784
s(g6
g16
tp278
I0
s(g4
g6
tp279
I23
s(g6
g6
tp280
I0
s(g16
g3
tp281
I1
s(g6
g3
tp282
I1
s(g6
g4
tp283
I2
s(g16
g4
tp284
I0
s(g3
g16
tp285
I28
s(g4
g18
tp286
I29
s(g3
g3
tp287
I35
s(g3
g18
tp288
I34
s(g16
g18
tp289
I11
s(g3
g6
tp290
I29
s(g16
g16
tp291
I1
s(g16
g6
tp292
I0
s(g4
g3
tp293
I651
s(g4
g4
tp294
I172
s(g6
g18
tp295
I22
ss(I4
I9
tp296
(dp297
(g3
g4
tp298
I815
s(g4
g6
tp299
I0
s(g6
g6
tp300
I0
s(g6
g3
tp301
I0
s(g6
g4
tp302
I8
s(g16
g4
tp303
I73
s(g16
g3
tp304
I1
s(g3
g3
tp305
I11
s(g16
g6
tp306
I0
s(g3
g6
tp307
I0
s(g18
g4
tp308
I57
s(g4
g3
tp309
I320
s(g4
g4
tp310
I516
s(g18
g3
tp311
I0
s(g18
g6
tp312
I0
ss(I2
I9
tp313
(dp314
(g3
g4
tp315
I682
s(g4
g6
tp316
I0
s(g6
g6
tp317
I0
s(g6
g3
tp318
I4
s(g6
g4
tp319
I48
s(g16
g4
tp320
I17
s(g16
g3
tp321
I12
s(g3
g3
tp322
I10
s(g16
g6
tp323
I0
s(g3
g6
tp324
I0
s(g18
g4
tp325
I94
s(g4
g3
tp326
I304
s(g4
g4
tp327
I656
s(g18
g3
tp328
I2
s(g18
g6
tp329
I0
ss(I3
I10
tp330
(dp331
(g3
g4
tp332
I506
s(g4
g6
tp333
I209
s(g6
g6
tp334
I0
s(g6
g3
tp335
I0
s(g6
g4
tp336
I43
s(g16
g4
tp337
I5
s(g16
g3
tp338
I0
s(g3
g3
tp339
I0
s(g16
g6
tp340
I0
s(g3
g6
tp341
I10
s(g4
g3
tp342
I20
s(g4
g4
tp343
I918
ss(I6
I10
tp344
(dp345
(g3
g4
tp346
I861
s(g4
g6
tp347
I196
s(g6
g6
tp348
I3
s(g6
g3
tp349
I2
s(g6
g4
tp350
I15
s(g16
g4
tp351
I5
s(g16
g3
tp352
I1
s(g3
g3
tp353
I1
s(g16
g6
tp354
I1
s(g3
g6
tp355
I17
s(g4
g3
tp356
I14
s(g4
g4
tp357
I707
ss(I8
I10
tp358
(dp359
(g3
g4
tp360
I777
s(g4
g6
tp361
I159
s(g3
g3
tp362
I13
s(g3
g6
tp363
I60
s(g4
g3
tp364
I7
s(g4
g4
tp365
I368
ss(I5
I12
tp366
(dp367
(g3
g4
tp368
I1240
s(g4
g6
tp369
I18
s(g3
g3
tp370
I19
s(g3
g6
tp371
I208
s(g4
g3
tp372
I3
s(g4
g4
tp373
I103
ss(I1
I5
tp374
(dp375
(g3
g4
tp376
I14
s(g3
g3
tp377
I658
s(g6
g3
tp378
I24
s(g6
g4
tp379
I1
s(g16
g4
tp380
I1
s(g16
g3
tp381
I12
s(g4
g3
tp382
I767
s(g4
g4
tp383
I108
ss(I9
I11
tp384
(dp385
(g3
g4
tp386
I268
s(g4
g6
tp387
I150
s(g6
g6
tp388
I0
s(g6
g3
tp389
I0
s(g6
g4
tp390
I0
s(g3
g3
tp391
I3
s(g3
g6
tp392
I61
s(g4
g3
tp393
I14
s(g4
g4
tp394
I1335
ss(I3
I6
tp395
(dp396
(g4
g16
tp397
I7
s(g3
g4
tp398
I61
s(g6
g16
tp399
I0
s(g4
g6
tp400
I19
s(g6
g6
tp401
I0
s(g6
g3
tp402
I37
s(g6
g4
tp403
I6
s(g16
g4
tp404
I2
s(g3
g16
tp405
I0
s(g16
g3
tp406
I3
s(g3
g3
tp407
I454
s(g16
g6
tp408
I0
s(g3
g6
tp409
I1
s(g16
g16
tp410
I0
s(g4
g3
tp411
I282
s(g4
g4
tp412
I831
ss(I1
I10
tp413
(dp414
(g3
g4
tp415
I903
s(g4
g6
tp416
I202
s(g6
g6
tp417
I5
s(g6
g3
tp418
I2
s(g6
g4
tp419
I18
s(g16
g4
tp420
I10
s(g16
g3
tp421
I1
s(g3
g3
tp422
I0
s(g16
g6
tp423
I2
s(g3
g6
tp424
I9
s(g4
g3
tp425
I17
s(g4
g4
tp426
I656
ss(I7
I9
tp427
(dp428
(g3
g4
tp429
I698
s(g4
g6
tp430
I0
s(g6
g6
tp431
I0
s(g6
g3
tp432
I3
s(g6
g4
tp433
I69
s(g16
g4
tp434
I288
s(g16
g3
tp435
I21
s(g3
g3
tp436
I19
s(g16
g6
tp437
I0
s(g3
g6
tp438
I0
s(g18
g4
tp439
I4
s(g4
g3
tp440
I288
s(g4
g4
tp441
I440
s(g18
g3
tp442
I1
s(g18
g6
tp443
I0
ss(I8
I11
tp444
(dp445
(g3
g4
tp446
I725
s(g4
g6
tp447
I20
s(g3
g3
tp448
I11
s(g3
g6
tp449
I114
s(g4
g3
tp450
I1
s(g4
g4
tp451
I513
ss(I4
I10
tp452
(dp453
(g3
g4
tp454
I636
s(g4
g6
tp455
I6
s(g6
g6
tp456
I4
s(g6
g3
tp457
I0
s(g6
g4
tp458
I4
s(g16
g4
tp459
I58
s(g16
g3
tp460
I1
s(g3
g3
tp461
I18
s(g16
g6
tp462
I15
s(g3
g6
tp463
I172
s(g18
g4
tp464
I45
s(g4
g3
tp465
I1
s(g4
g4
tp466
I829
s(g18
g3
tp467
I0
s(g18
g6
tp468
I12
ss(I2
I6
tp469
(dp470
(g4
g16
tp471
I0
s(g3
g4
tp472
I579
s(g6
g16
tp473
I1
s(g4
g6
tp474
I2
s(g6
g6
tp475
I0
s(g6
g3
tp476
I25
s(g6
g4
tp477
I26
s(g16
g4
tp478
I5
s(g3
g16
tp479
I4
s(g16
g3
tp480
I24
s(g3
g3
tp481
I90
s(g16
g6
tp482
I0
s(g3
g6
tp483
I15
s(g16
g16
tp484
I0
s(g18
g4
tp485
I73
s(g4
g3
tp486
I721
s(g18
g16
tp487
I2
s(g4
g4
tp488
I233
s(g18
g3
tp489
I18
s(g18
g6
tp490
I3
ss(I7
I10
tp491
(dp492
(g3
g4
tp493
I568
s(g4
g6
tp494
I5
s(g6
g6
tp495
I9
s(g6
g3
tp496
I2
s(g6
g4
tp497
I61
s(g16
g4
tp498
I235
s(g16
g3
tp499
I7
s(g3
g3
tp500
I11
s(g16
g6
tp501
I67
s(g3
g6
tp502
I138
s(g18
g4
tp503
I5
s(g4
g3
tp504
I0
s(g4
g4
tp505
I723
s(g18
g3
tp506
I0
s(g18
g6
tp507
I0
ss(I5
I11
tp508
(dp509
(g3
g4
tp510
I1288
s(g4
g6
tp511
I8
s(g3
g3
tp512
I13
s(g3
g6
tp513
I166
s(g4
g3
tp514
I2
s(g4
g4
tp515
I114
ss(I4
I5
tp516
(dp517
(g3
g4
tp518
I76
s(g3
g3
tp519
I696
s(g6
g3
tp520
I8
s(g6
g4
tp521
I0
s(g16
g4
tp522
I10
s(g16
g3
tp523
I59
s(g18
g3
tp524
I35
s(g18
g4
tp525
I22
s(g4
g3
tp526
I640
s(g4
g4
tp527
I15
ss(I6
I7
tp528
(dp529
(g4
g16
tp530
I167
s(g3
g4
tp531
I649
s(g6
g16
tp532
I20
s(g4
g6
tp533
I67
s(g6
g6
tp534
I0
s(g16
g3
tp535
I0
s(g6
g3
tp536
I0
s(g6
g4
tp537
I0
s(g16
g4
tp538
I0
s(g3
g16
tp539
I111
s(g4
g18
tp540
I2
s(g3
g3
tp541
I111
s(g3
g18
tp542
I3
s(g16
g18
tp543
I0
s(g3
g6
tp544
I5
s(g16
g16
tp545
I7
s(g16
g6
tp546
I0
s(g4
g3
tp547
I602
s(g4
g4
tp548
I79
s(g6
g18
tp549
I0
ss(I6
I11
tp550
(dp551
(g3
g4
tp552
I725
s(g4
g6
tp553
I59
s(g6
g6
tp554
I0
s(g6
g3
tp555
I1
s(g6
g4
tp556
I19
s(g16
g4
tp557
I6
s(g16
g3
tp558
I0
s(g3
g3
tp559
I9
s(g16
g6
tp560
I1
s(g3
g6
tp561
I145
s(g4
g3
tp562
I7
s(g4
g4
tp563
I851
ss(I1
I4
tp564
(dp565
(g4
g16
tp566
I59
s(g3
g4
tp567
I818
s(g6
g16
tp568
I5
s(g4
g6
tp569
I8
s(g6
g6
tp570
I0
s(g16
g3
tp571
I11
s(g6
g3
tp572
I12
s(g6
g4
tp573
I0
s(g16
g4
tp574
I0
s(g3
g16
tp575
I9
s(g4
g18
tp576
I54
s(g3
g3
tp577
I81
s(g3
g18
tp578
I2
s(g16
g18
tp579
I0
s(g3
g6
tp580
I0
s(g16
g16
tp581
I1
s(g16
g6
tp582
I0
s(g4
g3
tp583
I716
s(g4
g4
tp584
I18
s(g6
g18
tp585
I1
ss(I2
I10
tp586
(dp587
(g3
g4
tp588
I528
s(g4
g6
tp589
I35
s(g6
g6
tp590
I7
s(g6
g3
tp591
I1
s(g6
g4
tp592
I44
s(g16
g4
tp593
I29
s(g16
g3
tp594
I0
s(g3
g3
tp595
I12
s(g16
g6
tp596
I0
s(g3
g6
tp597
I152
s(g18
g4
tp598
I70
s(g4
g3
tp599
I6
s(g4
g4
tp600
I919
s(g18
g3
tp601
I1
s(g18
g6
tp602
I25
ss(I9
I10
tp603
(dp604
(g3
g4
tp605
I332
s(g4
g6
tp606
I219
s(g6
g6
tp607
I0
s(g6
g3
tp608
I0
s(g6
g4
tp609
I0
s(g3
g3
tp610
I0
s(g3
g6
tp611
I0
s(g4
g3
tp612
I20
s(g4
g4
tp613
I1260
ss(I3
I9
tp614
(dp615
(g3
g4
tp616
I306
s(g4
g6
tp617
I0
s(g6
g6
tp618
I0
s(g6
g3
tp619
I27
s(g6
g4
tp620
I16
s(g16
g4
tp621
I4
s(g16
g3
tp622
I1
s(g3
g3
tp623
I210
s(g16
g6
tp624
I0
s(g3
g6
tp625
I0
s(g4
g3
tp626
I63
s(g4
g4
tp627
I1084
ss(I2
I3
tp628
(dp629
(g4
g16
tp630
I3
s(g3
g4
tp631
I646
s(g6
g16
tp632
I0
s(g4
g6
tp633
I43
s(g6
g6
tp634
I0
s(g6
g3
tp635
I0
s(g6
g4
tp636
I24
s(g16
g4
tp637
I1
s(g3
g16
tp638
I2
s(g16
g3
tp639
I1
s(g3
g3
tp640
I13
s(g16
g6
tp641
I0
s(g3
g6
tp642
I0
s(g16
g16
tp643
I0
s(g18
g4
tp644
I79
s(g4
g3
tp645
I487
s(g18
g16
tp646
I0
s(g4
g4
tp647
I397
s(g18
g3
tp648
I13
s(g18
g6
tp649
I0
ss(I1
I9
tp650
(dp651
(g3
g4
tp652
I580
s(g4
g6
tp653
I0
s(g6
g6
tp654
I0
s(g6
g3
tp655
I0
s(g6
g4
tp656
I25
s(g16
g4
tp657
I13
s(g16
g3
tp658
I0
s(g3
g3
tp659
I332
s(g16
g6
tp660
I0
s(g3
g6
tp661
I0
s(g4
g3
tp662
I0
s(g4
g4
tp663
I875
ss(I7
I12
tp664
(dp665
(g3
g4
tp666
I579
s(g4
g6
tp667
I57
s(g6
g6
tp668
I15
s(g6
g3
tp669
I2
s(g6
g4
tp670
I55
s(g16
g4
tp671
I258
s(g16
g3
tp672
I3
s(g3
g3
tp673
I13
s(g16
g6
tp674
I48
s(g3
g6
tp675
I125
s(g18
g4
tp676
I2
s(g4
g3
tp677
I5
s(g4
g4
tp678
I666
s(g18
g3
tp679
I0
s(g18
g6
tp680
I3
ss(I6
I8
tp681
(dp682
(g3
g4
tp683
I57
s(g3
g3
tp684
I436
s(g6
g3
tp685
I20
s(g6
g4
tp686
I0
s(g16
g4
tp687
I1
s(g16
g3
tp688
I6
s(g4
g3
tp689
I388
s(g4
g4
tp690
I468
ss(I5
I10
tp691
(dp692
(g3
g4
tp693
I1259
s(g4
g6
tp694
I30
s(g3
g3
tp695
I19
s(g3
g6
tp696
I189
s(g4
g3
tp697
I1
s(g4
g4
tp698
I93
ss(I11
I12
tp699
(dp700
(g3
g4
tp701
I10
s(g4
g6
tp702
I179
s(g6
g6
tp703
I64
s(g6
g3
tp704
I2
s(g6
g4
tp705
I145
s(g3
g3
tp706
I2
s(g3
g6
tp707
I5
s(g4
g3
tp708
I19
s(g4
g4
tp709
I1405
ss(I4
I11
tp710
(dp711
(g3
g4
tp712
I773
s(g4
g6
tp713
I157
s(g6
g6
tp714
I1
s(g6
g3
tp715
I0
s(g6
g4
tp716
I7
s(g16
g4
tp717
I68
s(g16
g3
tp718
I2
s(g3
g3
tp719
I6
s(g16
g6
tp720
I4
s(g3
g6
tp721
I47
s(g18
g4
tp722
I55
s(g4
g3
tp723
I9
s(g4
g4
tp724
I670
s(g18
g3
tp725
I0
s(g18
g6
tp726
I2
ss(I3
I5
tp727
(dp728
(g3
g4
tp729
I5
s(g3
g3
tp730
I413
s(g6
g3
tp731
I32
s(g6
g4
tp732
I0
s(g16
g4
tp733
I2
s(g16
g3
tp734
I0
s(g4
g3
tp735
I953
s(g4
g4
tp736
I114
ss(I2
I7
tp737
(dp738
(g4
g6
tp739
I15
s(g6
g6
tp740
I5
s(g16
g4
tp741
I11
s(g18
g3
tp742
I39
s(g16
g18
tp743
I0
s(g3
g6
tp744
I51
s(g18
g18
tp745
I2
s(g4
g16
tp746
I64
s(g6
g16
tp747
I7
s(g4
g18
tp748
I3
s(g16
g16
tp749
I12
s(g4
g4
tp750
I681
s(g6
g18
tp751
I0
s(g3
g3
tp752
I451
s(g6
g4
tp753
I17
s(g3
g18
tp754
I0
s(g18
g4
tp755
I3
s(g4
g3
tp756
I197
s(g18
g16
tp757
I51
s(g3
g4
tp758
I15
s(g6
g3
tp759
I23
s(g16
g3
tp760
I6
s(g16
g6
tp761
I0
s(g18
g6
tp762
I1
s(g3
g16
tp763
I175
ss(I6
I9
tp764
(dp765
(g3
g4
tp766
I576
s(g4
g6
tp767
I0
s(g6
g6
tp768
I0
s(g6
g3
tp769
I0
s(g6
g4
tp770
I20
s(g16
g4
tp771
I7
s(g16
g3
tp772
I0
s(g3
g3
tp773
I303
s(g16
g6
tp774
I0
s(g3
g6
tp775
I0
s(g4
g3
tp776
I29
s(g4
g4
tp777
I888
ss(I3
I12
tp778
(dp779
(g3
g4
tp780
I467
s(g4
g6
tp781
I192
s(g6
g6
tp782
I3
s(g6
g3
tp783
I0
s(g6
g4
tp784
I40
s(g16
g4
tp785
I5
s(g16
g3
tp786
I0
s(g3
g3
tp787
I4
s(g16
g6
tp788
I0
s(g3
g6
tp789
I45
s(g4
g3
tp790
I19
s(g4
g4
tp791
I936
ss(I4
I6
tp792
(dp793
(g4
g16
tp794
I0
s(g3
g4
tp795
I665
s(g6
g16
tp796
I1
s(g4
g6
tp797
I0
s(g6
g6
tp798
I0
s(g6
g3
tp799
I0
s(g6
g4
tp800
I7
s(g16
g4
tp801
I64
s(g3
g16
tp802
I4
s(g16
g3
tp803
I6
s(g3
g3
tp804
I132
s(g16
g6
tp805
I0
s(g3
g6
tp806
I19
s(g16
g16
tp807
I2
s(g18
g4
tp808
I57
s(g4
g3
tp809
I735
s(g18
g16
tp810
I0
s(g4
g4
tp811
I101
s(g18
g3
tp812
I0
s(g18
g6
tp813
I0
ss(I1
I12
tp814
(dp815
(g3
g4
tp816
I825
s(g4
g6
tp817
I162
s(g6
g6
tp818
I3
s(g6
g3
tp819
I0
s(g6
g4
tp820
I22
s(g16
g4
tp821
I11
s(g16
g3
tp822
I0
s(g3
g3
tp823
I6
s(g16
g6
tp824
I2
s(g3
g6
tp825
I81
s(g4
g3
tp826
I16
s(g4
g4
tp827
I697
ss(I8
I12
tp828
(dp829
(g3
g4
tp830
I688
s(g4
g6
tp831
I61
s(g3
g3
tp832
I18
s(g3
g6
tp833
I144
s(g4
g3
tp834
I1
s(g4
g4
tp835
I472
ss(I7
I8
tp836
(dp837
(g3
g4
tp838
I334
s(g3
g3
tp839
I256
s(g6
g3
tp840
I65
s(g6
g4
tp841
I2
s(g16
g4
tp842
I193
s(g16
g3
tp843
I93
s(g18
g3
tp844
I1
s(g18
g4
tp845
I0
s(g4
g3
tp846
I435
s(g4
g4
tp847
I5
ss(I5
I7
tp848
(dp849
(g4
g16
tp850
I49
s(g3
g4
tp851
I532
s(g4
g6
tp852
I7
s(g3
g16
tp853
I258
s(g4
g18
tp854
I0
s(g3
g3
tp855
I612
s(g3
g18
tp856
I3
s(g3
g6
tp857
I62
s(g4
g3
tp858
I58
s(g4
g4
tp859
I10
ss(I2
I11
tp860
(dp861
(g3
g4
tp862
I646
s(g4
g6
tp863
I160
s(g6
g6
tp864
I4
s(g6
g3
tp865
I1
s(g6
g4
tp866
I47
s(g16
g4
tp867
I25
s(g16
g3
tp868
I0
s(g3
g3
tp869
I8
s(g16
g6
tp870
I4
s(g3
g6
tp871
I38
s(g18
g4
tp872
I91
s(g4
g3
tp873
I8
s(g4
g4
tp874
I792
s(g18
g3
tp875
I0
s(g18
g6
tp876
I5
ss(I3
I8
tp877
(dp878
(g3
g4
tp879
I27
s(g3
g3
tp880
I273
s(g6
g3
tp881
I10
s(g6
g4
tp882
I0
s(g16
g4
tp883
I2
s(g16
g3
tp884
I1
s(g4
g3
tp885
I524
s(g4
g4
tp886
I505
ss(I1
I8
tp887
(dp888
(g3
g4
tp889
I28
s(g3
g3
tp890
I438
s(g6
g3
tp891
I8
s(g6
g4
tp892
I17
s(g16
g4
tp893
I10
s(g16
g3
tp894
I3
s(g4
g3
tp895
I398
s(g4
g4
tp896
I476
ss(I1
I7
tp897
(dp898
(g4
g16
tp899
I244
s(g3
g4
tp900
I719
s(g6
g16
tp901
I15
s(g4
g6
tp902
I65
s(g6
g6
tp903
I0
s(g16
g3
tp904
I7
s(g6
g3
tp905
I8
s(g6
g4
tp906
I2
s(g16
g4
tp907
I0
s(g3
g16
tp908
I43
s(g4
g18
tp909
I0
s(g3
g3
tp910
I138
s(g3
g18
tp911
I5
s(g16
g18
tp912
I0
s(g3
g6
tp913
I7
s(g16
g16
tp914
I6
s(g16
g6
tp915
I0
s(g4
g3
tp916
I559
s(g4
g4
tp917
I7
s(g6
g18
tp918
I0
ss(I3
I4
tp919
(dp920
(g4
g16
tp921
I71
s(g3
g4
tp922
I463
s(g6
g16
tp923
I0
s(g4
g6
tp924
I8
s(g6
g6
tp925
I0
s(g16
g3
tp926
I0
s(g6
g3
tp927
I1
s(g6
g4
tp928
I42
s(g16
g4
tp929
I3
s(g3
g16
tp930
I0
s(g4
g18
tp931
I55
s(g3
g3
tp932
I24
s(g3
g18
tp933
I0
s(g16
g18
tp934
I2
s(g3
g6
tp935
I0
s(g16
g16
tp936
I0
s(g16
g6
tp937
I0
s(g4
g3
tp938
I781
s(g4
g4
tp939
I231
s(g6
g18
tp940
I0
ss(I2
I4
tp941
(dp942
(g4
g6
tp943
I0
s(g6
g6
tp944
I1
s(g16
g4
tp945
I21
s(g18
g3
tp946
I51
s(g16
g18
tp947
I0
s(g3
g6
tp948
I3
s(g18
g18
tp949
I8
s(g4
g16
tp950
I16
s(g6
g16
tp951
I0
s(g4
g18
tp952
I14
s(g16
g16
tp953
I0
s(g4
g4
tp954
I753
s(g6
g18
tp955
I2
s(g3
g3
tp956
I567
s(g6
g4
tp957
I21
s(g3
g18
tp958
I33
s(g18
g4
tp959
I6
s(g4
g3
tp960
I172
s(g18
g16
tp961
I14
s(g3
g4
tp962
I33
s(g6
g3
tp963
I28
s(g16
g3
tp964
I8
s(g16
g6
tp965
I0
s(g18
g6
tp966
I4
s(g3
g16
tp967
I44
ss(I9
I12
tp968
(dp969
(g3
g4
tp970
I311
s(g4
g6
tp971
I229
s(g6
g6
tp972
I0
s(g6
g3
tp973
I0
s(g6
g4
tp974
I0
s(g3
g3
tp975
I2
s(g3
g6
tp976
I19
s(g4
g3
tp977
I21
s(g4
g4
tp978
I1249
ss.