(dp0
(I5
I9
tp1
(dp2
(S'1'
p3
S'0'
p4
tp5
I146
s(g3
g3
tp6
I0
s(S'2'
p7
g3
tp8
I0
s(g7
g4
tp9
I192
s(g4
g3
tp10
I0
s(g4
g4
tp11
I574
ss(I4
I7
tp12
(dp13
(g3
g4
tp14
I585
s(g4
g7
tp15
I0
s(g7
g7
tp16
I0
s(g7
g3
tp17
I0
s(g7
g4
tp18
I0
s(S'3'
p19
g4
tp20
I71
s(g19
g3
tp21
I27
s(g3
g3
tp22
I192
s(g19
g7
tp23
I0
s(g3
g7
tp24
I12
s(g4
g3
tp25
I12
s(g4
g4
tp26
I21
ss(I1
I3
tp27
(dp28
(g3
g4
tp29
I100
s(g3
g3
tp30
I425
s(g7
g3
tp31
I254
s(g7
g4
tp32
I46
s(g4
g3
tp33
I70
s(g4
g4
tp34
I20
ss(I8
I13
tp35
(dp36
(g4
g19
tp37
I440
s(g7
g19
tp38
I21
s(g4
S'4'
p39
tp40
I345
s(g3
g39
tp41
I35
s(g19
g19
tp42
I19
s(g19
g39
tp43
I12
s(g3
g19
tp44
I18
s(g7
g39
tp45
I30
ss(I4
I8
tp46
(dp47
(g4
g19
tp48
I1
s(g3
g4
tp49
I674
s(g7
g19
tp50
I0
s(g4
g7
tp51
I5
s(g7
g7
tp52
I0
s(g7
g3
tp53
I0
s(g7
g4
tp54
I0
s(g19
g4
tp55
I87
s(g3
g19
tp56
I30
s(g19
g3
tp57
I6
s(g3
g3
tp58
I44
s(g19
g7
tp59
I5
s(g3
g7
tp60
I41
s(g19
g19
tp61
I0
s(g4
g3
tp62
I3
s(g4
g4
tp63
I24
ss(I5
I6
tp64
(dp65
(g3
g4
tp66
I21
s(g4
g7
tp67
I134
s(g7
g7
tp68
I35
s(g7
g3
tp69
I156
s(g7
g4
tp70
I1
s(g3
g3
tp71
I97
s(g3
g7
tp72
I29
s(g4
g3
tp73
I437
s(g4
g4
tp74
I3
ss(I2
I8
tp75
(dp76
(g4
g19
tp77
I1
s(g3
g4
tp78
I711
s(g7
g19
tp79
I5
s(g4
g7
tp80
I1
s(g7
g7
tp81
I3
s(g7
g3
tp82
I9
s(g7
g4
tp83
I50
s(g19
g4
tp84
I0
s(g3
g19
tp85
I25
s(g19
g3
tp86
I0
s(g3
g3
tp87
I43
s(g19
g7
tp88
I0
s(g3
g7
tp89
I47
s(g19
g19
tp90
I0
s(g4
g3
tp91
I1
s(g4
g4
tp92
I24
ss(I7
I11
tp93
(dp94
(g3
g4
tp95
I186
s(g4
g7
tp96
I125
s(g7
g7
tp97
I1
s(g7
g3
tp98
I1
s(g7
g4
tp99
I10
s(g3
g3
tp100
I8
s(g3
g7
tp101
I37
s(g4
g3
tp102
I43
s(g4
g4
tp103
I509
ss(I3
I11
tp104
(dp105
(g3
g4
tp106
I573
s(g4
g7
tp107
I30
s(g3
g3
tp108
I44
s(g3
g7
tp109
I132
s(g4
g3
tp110
I7
s(g4
g4
tp111
I129
ss(I10
I12
tp112
(dp113
(g3
g4
tp114
I18
s(g4
g7
tp115
I217
s(g7
g7
tp116
I50
s(g7
g3
tp117
I14
s(g7
g4
tp118
I288
s(g3
g3
tp119
I9
s(g3
g7
tp120
I4
s(g4
g3
tp121
I19
s(g4
g4
tp122
I301
ss(I8
I9
tp123
(dp124
(g3
g4
tp125
I52
s(g3
g3
tp126
I0
s(g7
g3
tp127
I0
s(g7
g4
tp128
I51
s(g19
g4
tp129
I31
s(g19
g3
tp130
I0
s(g4
g3
tp131
I0
s(g4
g4
tp132
I785
ss(I4
I12
tp133
(dp134
(g3
g4
tp135
I521
s(g4
g7
tp136
I9
s(g7
g7
tp137
I0
s(g7
g3
tp138
I0
s(g7
g4
tp139
I0
s(g19
g4
tp140
I62
s(g19
g3
tp141
I7
s(g3
g3
tp142
I35
s(g19
g7
tp143
I29
s(g3
g7
tp144
I233
s(g4
g3
tp145
I0
s(g4
g4
tp146
I24
ss(I1
I6
tp147
(dp148
(g3
g4
tp149
I2
s(g4
g7
tp150
I16
s(g7
g7
tp151
I68
s(g7
g3
tp152
I232
s(g7
g4
tp153
I0
s(g3
g3
tp154
I408
s(g3
g7
tp155
I115
s(g4
g3
tp156
I52
s(g4
g4
tp157
I27
ss(I2
I12
tp158
(dp159
(g3
g4
tp160
I540
s(g4
g7
tp161
I7
s(g7
g7
tp162
I15
s(g7
g3
tp163
I4
s(g7
g4
tp164
I48
s(g19
g4
tp165
I0
s(g19
g3
tp166
I0
s(g3
g3
tp167
I37
s(g19
g7
tp168
I0
s(g3
g7
tp169
I249
s(g4
g3
tp170
I1
s(g4
g4
tp171
I19
ss(I6
I12
tp172
(dp173
(g3
g4
tp174
I439
s(g4
g7
tp175
I4
s(g7
g7
tp176
I44
s(g7
g3
tp177
I11
s(g7
g4
tp178
I144
s(g3
g3
tp179
I30
s(g3
g7
tp180
I223
s(g4
g3
tp181
I1
s(g4
g4
tp182
I24
ss(I3
I7
tp183
(dp184
(g3
g4
tp185
I588
s(g4
g7
tp186
I0
s(g3
g3
tp187
I153
s(g3
g7
tp188
I8
s(g4
g3
tp189
I77
s(g4
g4
tp190
I89
ss(I2
I5
tp191
(dp192
(g3
g4
tp193
I529
s(g4
g7
tp194
I6
s(g7
g7
tp195
I14
s(g7
g3
tp196
I22
s(g7
g4
tp197
I27
s(g19
g4
tp198
I0
s(g19
g3
tp199
I0
s(g3
g3
tp200
I122
s(g19
g7
tp201
I0
s(g3
g7
tp202
I172
s(g4
g3
tp203
I3
s(g4
g4
tp204
I18
ss(I1
I11
tp205
(dp206
(g3
g4
tp207
I400
s(g4
g7
tp208
I14
s(g7
g7
tp209
I54
s(g7
g3
tp210
I18
s(g7
g4
tp211
I228
s(g3
g3
tp212
I30
s(g3
g7
tp213
I95
s(g4
g3
tp214
I4
s(g4
g4
tp215
I77
ss(I5
I8
tp216
(dp217
(g4
g19
tp218
I22
s(g3
g4
tp219
I122
s(g7
g19
tp220
I4
s(g4
g7
tp221
I38
s(g7
g7
tp222
I7
s(g7
g3
tp223
I11
s(g7
g4
tp224
I170
s(g3
g19
tp225
I5
s(g3
g3
tp226
I14
s(g3
g7
tp227
I6
s(g4
g3
tp228
I27
s(g4
g4
tp229
I487
ss(I1
I2
tp230
(dp231
(g4
g19
tp232
I0
s(g3
g4
tp233
I17
s(g7
g19
tp234
I0
s(g4
g7
tp235
I24
s(g7
g7
tp236
I12
s(g7
g3
tp237
I279
s(g7
g4
tp238
I9
s(g3
g19
tp239
I0
s(g3
g3
tp240
I477
s(g3
g7
tp241
I31
s(g4
g3
tp242
I70
s(g4
g4
tp243
I1
ss(I4
I9
tp244
(dp245
(g3
g4
tp246
I788
s(g3
g3
tp247
I0
s(g7
g3
tp248
I0
s(g7
g4
tp249
I0
s(g19
g4
tp250
I98
s(g19
g3
tp251
I0
s(g4
g3
tp252
I0
s(g4
g4
tp253
I33
ss(I5
I13
tp254
(dp255
(g4
g19
tp256
I288
s(g7
g19
tp257
I105
s(g4
g39
tp258
I286
s(g3
g39
tp259
I49
s(g3
g19
tp260
I98
s(g7
g39
tp261
I87
ss(I2
I9
tp262
(dp263
(g3
g4
tp264
I825
s(g3
g3
tp265
I0
s(g7
g3
tp266
I0
s(g7
g4
tp267
I67
s(g19
g4
tp268
I0
s(g19
g3
tp269
I0
s(g4
g3
tp270
I0
s(g4
g4
tp271
I27
ss(I12
I13
tp272
(dp273
(g4
g19
tp274
I308
s(g7
g19
tp275
I170
s(g4
g39
tp276
I299
s(g3
g39
tp277
I22
s(g3
g19
tp278
I20
s(g7
g39
tp279
I101
ss(I3
I10
tp280
(dp281
(g3
g4
tp282
I459
s(g4
g7
tp283
I85
s(g3
g3
tp284
I28
s(g3
g7
tp285
I262
s(g4
g3
tp286
I3
s(g4
g4
tp287
I78
ss(I5
I11
tp288
(dp289
(g3
g4
tp290
I113
s(g4
g7
tp291
I107
s(g7
g7
tp292
I29
s(g7
g3
tp293
I9
s(g7
g4
tp294
I154
s(g3
g3
tp295
I7
s(g3
g7
tp296
I27
s(g4
g3
tp297
I35
s(g4
g4
tp298
I432
ss(I8
I10
tp299
(dp300
(g3
g4
tp301
I27
s(g4
g7
tp302
I301
s(g7
g7
tp303
I11
s(g7
g3
tp304
I2
s(g7
g4
tp305
I38
s(g19
g4
tp306
I14
s(g19
g3
tp307
I0
s(g3
g3
tp308
I3
s(g19
g7
tp309
I17
s(g3
g7
tp310
I23
s(g4
g3
tp311
I26
s(g4
g4
tp312
I458
ss(I5
I12
tp313
(dp314
(g3
g4
tp315
I113
s(g4
g7
tp316
I180
s(g7
g7
tp317
I60
s(g7
g3
tp318
I13
s(g7
g4
tp319
I119
s(g3
g3
tp320
I5
s(g3
g7
tp321
I29
s(g4
g3
tp322
I24
s(g4
g4
tp323
I370
ss(I4
I13
tp324
(dp325
(g4
g19
tp326
I15
s(g7
g19
tp327
I0
s(g4
g39
tp328
I18
s(g3
g39
tp329
I359
s(g19
g19
tp330
I53
s(g19
g39
tp331
I45
s(g3
g19
tp332
I430
s(g7
g39
tp333
I0
ss(I1
I5
tp334
(dp335
(g3
g4
tp336
I355
s(g4
g7
tp337
I11
s(g7
g7
tp338
I70
s(g7
g3
tp339
I48
s(g7
g4
tp340
I182
s(g3
g3
tp341
I59
s(g3
g7
tp342
I111
s(g4
g3
tp343
I40
s(g4
g4
tp344
I37
ss(I2
I13
tp345
(dp346
(g4
g19
tp347
I11
s(g7
g19
tp348
I52
s(g4
g39
tp349
I16
s(g3
g39
tp350
I391
s(g19
g19
tp351
I0
s(g19
g39
tp352
I0
s(g3
g19
tp353
I435
s(g7
g39
tp354
I15
ss(I9
I11
tp355
(dp356
(g3
g4
tp357
I0
s(g4
g7
tp358
I163
s(g3
g3
tp359
I0
s(g3
g7
tp360
I0
s(g4
g3
tp361
I52
s(g4
g4
tp362
I704
ss(I3
I6
tp363
(dp364
(g3
g4
tp365
I19
s(g4
g7
tp366
I35
s(g3
g3
tp367
I566
s(g3
g7
tp368
I164
s(g4
g3
tp369
I125
s(g4
g4
tp370
I6
ss(I1
I10
tp371
(dp372
(g3
g4
tp373
I344
s(g4
g7
tp374
I66
s(g7
g7
tp375
I120
s(g7
g3
tp376
I15
s(g7
g4
tp377
I165
s(g3
g3
tp378
I15
s(g3
g7
tp379
I166
s(g4
g3
tp380
I1
s(g4
g4
tp381
I28
ss(I7
I9
tp382
(dp383
(g3
g4
tp384
I230
s(g3
g3
tp385
I0
s(g7
g3
tp386
I0
s(g7
g4
tp387
I12
s(g4
g3
tp388
I0
s(g4
g4
tp389
I677
ss(I8
I11
tp390
(dp391
(g3
g4
tp392
I44
s(g4
g7
tp393
I140
s(g7
g7
tp394
I9
s(g7
g3
tp395
I1
s(g7
g4
tp396
I41
s(g19
g4
tp397
I23
s(g19
g3
tp398
I0
s(g3
g3
tp399
I3
s(g19
g7
tp400
I8
s(g3
g7
tp401
I6
s(g4
g3
tp402
I48
s(g4
g4
tp403
I597
ss(I11
I13
tp404
(dp405
(g4
g19
tp406
I380
s(g7
g19
tp407
I81
s(g4
g39
tp408
I325
s(g3
g39
tp409
I15
s(g3
g19
tp410
I37
s(g7
g39
tp411
I82
ss(I4
I10
tp412
(dp413
(g3
g4
tp414
I456
s(g4
g7
tp415
I11
s(g7
g7
tp416
I0
s(g7
g3
tp417
I0
s(g7
g4
tp418
I0
s(g19
g4
tp419
I59
s(g19
g3
tp420
I8
s(g3
g3
tp421
I23
s(g19
g7
tp422
I31
s(g3
g7
tp423
I310
s(g4
g3
tp424
I0
s(g4
g4
tp425
I22
ss(I2
I6
tp426
(dp427
(g3
g4
tp428
I17
s(g4
g7
tp429
I10
s(g7
g7
tp430
I22
s(g7
g3
tp431
I34
s(g7
g4
tp432
I11
s(g19
g4
tp433
I0
s(g19
g3
tp434
I0
s(g3
g3
tp435
I642
s(g19
g7
tp436
I0
s(g3
g7
tp437
I167
s(g4
g3
tp438
I16
s(g4
g4
tp439
I1
ss(I7
I10
tp440
(dp441
(g3
g4
tp442
I118
s(g4
g7
tp443
I232
s(g7
g7
tp444
I11
s(g7
g3
tp445
I0
s(g7
g4
tp446
I1
s(g3
g3
tp447
I4
s(g3
g7
tp448
I109
s(g4
g3
tp449
I27
s(g4
g4
tp450
I418
ss(I3
I13
tp451
(dp452
(g4
g19
tp453
I58
s(g4
g39
tp454
I108
s(g3
g39
tp455
I314
s(g3
g19
tp456
I435
ss(I4
I5
tp457
(dp458
(g3
g4
tp459
I487
s(g4
g7
tp460
I4
s(g7
g7
tp461
I0
s(g7
g3
tp462
I0
s(g7
g4
tp463
I0
s(g19
g4
tp464
I66
s(g19
g3
tp465
I11
s(g3
g3
tp466
I128
s(g19
g7
tp467
I21
s(g3
g7
tp468
I167
s(g4
g3
tp469
I8
s(g4
g4
tp470
I21
ss(I1
I13
tp471
(dp472
(g4
g19
tp473
I78
s(g7
g19
tp474
I127
s(g4
g39
tp475
I17
s(g3
g39
tp476
I232
s(g3
g19
tp477
I293
s(g7
g39
tp478
I173
ss(I6
I7
tp479
(dp480
(g3
g4
tp481
I530
s(g4
g7
tp482
I7
s(g7
g7
tp483
I2
s(g7
g3
tp484
I55
s(g7
g4
tp485
I142
s(g3
g3
tp486
I159
s(g3
g7
tp487
I3
s(g4
g3
tp488
I17
s(g4
g4
tp489
I5
ss(I7
I13
tp490
(dp491
(g4
g19
tp492
I364
s(g7
g19
tp493
I11
s(g4
g39
tp494
I313
s(g3
g39
tp495
I108
s(g3
g19
tp496
I123
s(g7
g39
tp497
I1
ss(I6
I11
tp498
(dp499
(g3
g4
tp500
I518
s(g4
g7
tp501
I3
s(g7
g7
tp502
I27
s(g7
g3
tp503
I8
s(g7
g4
tp504
I164
s(g3
g3
tp505
I41
s(g3
g7
tp506
I133
s(g4
g3
tp507
I3
s(g4
g4
tp508
I23
ss(I1
I4
tp509
(dp510
(g4
g19
tp511
I2
s(g3
g4
tp512
I14
s(g7
g19
tp513
I42
s(g4
g7
tp514
I0
s(g7
g7
tp515
I0
s(g7
g3
tp516
I244
s(g7
g4
tp517
I14
s(g3
g19
tp518
I54
s(g3
g3
tp519
I457
s(g3
g7
tp520
I0
s(g4
g3
tp521
I88
s(g4
g4
tp522
I5
ss(I2
I10
tp523
(dp524
(g3
g4
tp525
I485
s(g4
g7
tp526
I10
s(g7
g7
tp527
I31
s(g7
g3
tp528
I1
s(g7
g4
tp529
I35
s(g19
g4
tp530
I0
s(g19
g3
tp531
I0
s(g3
g3
tp532
I30
s(g19
g7
tp533
I0
s(g3
g7
tp534
I311
s(g4
g3
tp535
I0
s(g4
g4
tp536
I17
ss(I9
I10
tp537
(dp538
(g3
g4
tp539
I0
s(g4
g7
tp540
I351
s(g3
g3
tp541
I0
s(g3
g7
tp542
I0
s(g4
g3
tp543
I31
s(g4
g4
tp544
I537
ss(I3
I9
tp545
(dp546
(g3
g4
tp547
I748
s(g4
g3
tp548
I0
s(g3
g3
tp549
I0
s(g4
g4
tp550
I166
ss(I2
I3
tp551
(dp552
(g3
g4
tp553
I142
s(g3
g3
tp554
I680
s(g7
g3
tp555
I50
s(g7
g4
tp556
I16
s(g19
g4
tp557
I0
s(g19
g3
tp558
I0
s(g4
g3
tp559
I19
s(g4
g4
tp560
I8
ss(I1
I9
tp561
(dp562
(g3
g4
tp563
I525
s(g3
g3
tp564
I0
s(g7
g3
tp565
I0
s(g7
g4
tp566
I300
s(g4
g3
tp567
I0
s(g4
g4
tp568
I94
ss(I7
I12
tp569
(dp570
(g3
g4
tp571
I170
s(g4
g7
tp572
I213
s(g7
g7
tp573
I1
s(g7
g3
tp574
I1
s(g7
g4
tp575
I10
s(g3
g3
tp576
I4
s(g3
g7
tp577
I57
s(g4
g3
tp578
I37
s(g4
g4
tp579
I427
ss(I6
I8
tp580
(dp581
(g4
g19
tp582
I0
s(g3
g4
tp583
I606
s(g7
g19
tp584
I7
s(g4
g7
tp585
I0
s(g7
g7
tp586
I22
s(g7
g3
tp587
I16
s(g7
g4
tp588
I154
s(g3
g19
tp589
I24
s(g3
g3
tp590
I33
s(g3
g7
tp591
I29
s(g4
g3
tp592
I4
s(g4
g4
tp593
I25
ss(I5
I10
tp594
(dp595
(g3
g4
tp596
I66
s(g4
g7
tp597
I210
s(g7
g7
tp598
I58
s(g7
g3
tp599
I9
s(g7
g4
tp600
I125
s(g3
g3
tp601
I4
s(g3
g7
tp602
I77
s(g4
g3
tp603
I18
s(g4
g4
tp604
I346
ss(I11
I12
tp605
(dp606
(g3
g4
tp607
I25
s(g4
g7
tp608
I164
s(g7
g7
tp609
I91
s(g7
g3
tp610
I8
s(g7
g4
tp611
I64
s(g3
g3
tp612
I11
s(g3
g7
tp613
I16
s(g4
g3
tp614
I23
s(g4
g4
tp615
I518
ss(I4
I11
tp616
(dp617
(g3
g4
tp618
I598
s(g4
g7
tp619
I5
s(g7
g7
tp620
I0
s(g7
g3
tp621
I0
s(g7
g4
tp622
I0
s(g19
g4
tp623
I79
s(g19
g3
tp624
I4
s(g3
g3
tp625
I48
s(g19
g7
tp626
I15
s(g3
g7
tp627
I143
s(g4
g3
tp628
I0
s(g4
g4
tp629
I28
ss(I3
I5
tp630
(dp631
(g3
g4
tp632
I459
s(g4
g7
tp633
I22
s(g3
g3
tp634
I116
s(g3
g7
tp635
I170
s(g4
g3
tp636
I27
s(g4
g4
tp637
I115
ss(I2
I7
tp638
(dp639
(g3
g4
tp640
I631
s(g4
g7
tp641
I1
s(g7
g7
tp642
I5
s(g7
g3
tp643
I29
s(g7
g4
tp644
I33
s(g19
g4
tp645
I0
s(g19
g3
tp646
I0
s(g3
g3
tp647
I189
s(g19
g7
tp648
I0
s(g3
g7
tp649
I6
s(g4
g3
tp650
I13
s(g4
g4
tp651
I13
ss(I9
I13
tp652
(dp653
(g4
g19
tp654
I497
s(g4
g39
tp655
I422
s(g3
g39
tp656
I0
s(g3
g19
tp657
I0
ss(I6
I9
tp658
(dp659
(g3
g4
tp660
I691
s(g3
g3
tp661
I0
s(g7
g3
tp662
I0
s(g7
g4
tp663
I199
s(g4
g3
tp664
I0
s(g4
g4
tp665
I29
ss(I3
I12
tp666
(dp667
(g3
g4
tp668
I478
s(g4
g7
tp669
I38
s(g3
g3
tp670
I38
s(g3
g7
tp671
I233
s(g4
g3
tp672
I4
s(g4
g4
tp673
I124
ss(I4
I6
tp674
(dp675
(g3
g4
tp676
I27
s(g4
g7
tp677
I7
s(g7
g7
tp678
I0
s(g7
g3
tp679
I0
s(g7
g4
tp680
I0
s(g19
g4
tp681
I0
s(g19
g3
tp682
I71
s(g3
g3
tp683
I597
s(g19
g7
tp684
I27
s(g3
g7
tp685
I165
s(g4
g3
tp686
I24
s(g4
g4
tp687
I2
ss(I1
I12
tp688
(dp689
(g3
g4
tp690
I332
s(g4
g7
tp691
I21
s(g7
g7
tp692
I75
s(g7
g3
tp693
I19
s(g7
g4
tp694
I206
s(g3
g3
tp695
I18
s(g3
g7
tp696
I175
s(g4
g3
tp697
I5
s(g4
g4
tp698
I69
ss(I8
I12
tp699
(dp700
(g3
g4
tp701
I42
s(g4
g7
tp702
I241
s(g7
g7
tp703
I18
s(g7
g3
tp704
I0
s(g7
g4
tp705
I33
s(g19
g4
tp706
I27
s(g19
g3
tp707
I0
s(g3
g3
tp708
I3
s(g19
g7
tp709
I4
s(g3
g7
tp710
I8
s(g4
g3
tp711
I39
s(g4
g4
tp712
I505
ss(I7
I8
tp713
(dp714
(g4
g19
tp715
I13
s(g3
g4
tp716
I169
s(g7
g19
tp717
I0
s(g4
g7
tp718
I28
s(g7
g7
tp719
I0
s(g7
g3
tp720
I2
s(g7
g4
tp721
I10
s(g3
g19
tp722
I18
s(g3
g3
tp723
I21
s(g3
g7
tp724
I23
s(g4
g3
tp725
I30
s(g4
g4
tp726
I606
ss(I6
I10
tp727
(dp728
(g3
g4
tp729
I405
s(g4
g7
tp730
I27
s(g7
g7
tp731
I64
s(g7
g3
tp732
I5
s(g7
g4
tp733
I130
s(g3
g3
tp734
I26
s(g3
g7
tp735
I261
s(g4
g3
tp736
I0
s(g4
g4
tp737
I2
ss(I5
I7
tp738
(dp739
(g3
g4
tp740
I98
s(g4
g7
tp741
I1
s(g7
g7
tp742
I1
s(g7
g3
tp743
I33
s(g7
g4
tp744
I158
s(g3
g3
tp745
I42
s(g3
g7
tp746
I7
s(g4
g3
tp747
I152
s(g4
g4
tp748
I421
ss(I2
I11
tp749
(dp750
(g3
g4
tp751
I631
s(g4
g7
tp752
I9
s(g7
g7
tp753
I8
s(g7
g3
tp754
I3
s(g7
g4
tp755
I56
s(g19
g4
tp756
I0
s(g19
g3
tp757
I0
s(g3
g3
tp758
I49
s(g19
g7
tp759
I0
s(g3
g7
tp760
I146
s(g4
g3
tp761
I0
s(g4
g4
tp762
I18
ss(I3
I8
tp763
(dp764
(g4
g19
tp765
I25
s(g3
g4
tp766
I671
s(g4
g7
tp767
I15
s(g3
g19
tp768
I6
s(g3
g3
tp769
I36
s(g3
g7
tp770
I36
s(g4
g3
tp771
I16
s(g4
g4
tp772
I110
ss(I1
I8
tp773
(dp774
(g4
g19
tp775
I3
s(g3
g4
tp776
I445
s(g7
g19
tp777
I8
s(g4
g7
tp778
I5
s(g7
g7
tp779
I10
s(g7
g3
tp780
I20
s(g7
g4
tp781
I262
s(g3
g19
tp782
I20
s(g3
g3
tp783
I24
s(g3
g7
tp784
I36
s(g4
g3
tp785
I9
s(g4
g4
tp786
I78
ss(I10
I13
tp787
(dp788
(g4
g19
tp789
I309
s(g7
g19
tp790
I176
s(g4
g39
tp791
I228
s(g3
g39
tp792
I18
s(g3
g19
tp793
I13
s(g7
g39
tp794
I176
ss(I6
I13
tp795
(dp796
(g4
g19
tp797
I28
s(g7
g19
tp798
I90
s(g4
g39
tp799
I1
s(g3
g39
tp800
I312
s(g3
g19
tp801
I380
s(g7
g39
tp802
I109
ss(I1
I7
tp803
(dp804
(g3
g4
tp805
I411
s(g4
g7
tp806
I11
s(g7
g7
tp807
I1
s(g7
g3
tp808
I71
s(g7
g4
tp809
I228
s(g3
g3
tp810
I114
s(g3
g7
tp811
I0
s(g4
g3
tp812
I46
s(g4
g4
tp813
I38
ss(I10
I11
tp814
(dp815
(g3
g4
tp816
I19
s(g4
g7
tp817
I52
s(g7
g7
tp818
I108
s(g7
g3
tp819
I25
s(g7
g4
tp820
I219
s(g3
g3
tp821
I9
s(g3
g7
tp822
I3
s(g4
g3
tp823
I18
s(g4
g4
tp824
I467
ss(I3
I4
tp825
(dp826
(g4
g19
tp827
I0
s(g3
g4
tp828
I26
s(g4
g7
tp829
I0
s(g3
g19
tp830
I98
s(g3
g3
tp831
I625
s(g3
g7
tp832
I0
s(g4
g3
tp833
I159
s(g4
g4
tp834
I7
ss(I2
I4
tp835
(dp836
(g4
g19
tp837
I4
s(g3
g4
tp838
I29
s(g7
g19
tp839
I5
s(g4
g7
tp840
I0
s(g7
g7
tp841
I0
s(g7
g3
tp842
I59
s(g7
g4
tp843
I3
s(g19
g4
tp844
I0
s(g3
g19
tp845
I89
s(g19
g3
tp846
I0
s(g3
g3
tp847
I708
s(g19
g7
tp848
I0
s(g3
g7
tp849
I0
s(g19
g19
tp850
I0
s(g4
g3
tp851
I22
s(g4
g4
tp852
I1
ss(I9
I12
tp853
(dp854
(g3
g4
tp855
I0
s(g4
g7
tp856
I271
s(g3
g3
tp857
I0
s(g3
g7
tp858
I0
s(g4
g3
tp859
I42
s(g4
g4
tp860
I606
ss.