(dp0
(I5
I9
tp1
(dp2
(S'1'
p3
S'0'
p4
tp5
I146
s(g4
S'2'
p6
tp7
I0
s(g6
g6
tp8
I0
s(g6
g3
tp9
I0
s(g6
g4
tp10
I192
s(g3
g3
tp11
I0
s(g3
g6
tp12
I0
s(g4
g3
tp13
I0
s(g4
g4
tp14
I574
ss(I4
I7
tp15
(dp16
(g3
g4
tp17
I585
s(g4
g6
tp18
I0
s(g6
g6
tp19
I0
s(g6
g3
tp20
I0
s(g6
g4
tp21
I0
s(S'3'
p22
g4
tp23
I71
s(g22
g3
tp24
I27
s(g3
g3
tp25
I192
s(g22
g6
tp26
I0
s(g3
g6
tp27
I12
s(g4
g3
tp28
I12
s(g4
g4
tp29
I21
ss(I1
I3
tp30
(dp31
(g3
g4
tp32
I100
s(g3
g3
tp33
I425
s(g6
g3
tp34
I254
s(g6
g4
tp35
I46
s(g4
g3
tp36
I70
s(g4
g4
tp37
I20
ss(I10
I11
tp38
(dp39
(g3
g4
tp40
I19
s(g4
g6
tp41
I52
s(g6
g6
tp42
I108
s(g6
g3
tp43
I25
s(g6
g4
tp44
I219
s(g3
g3
tp45
I9
s(g3
g6
tp46
I3
s(g4
g3
tp47
I18
s(g4
g4
tp48
I467
ss(I4
I8
tp49
(dp50
(g4
g22
tp51
I1
s(g3
g4
tp52
I674
s(g6
g22
tp53
I0
s(g4
g6
tp54
I5
s(g6
g6
tp55
I0
s(g6
g3
tp56
I0
s(g6
g4
tp57
I0
s(g22
g4
tp58
I87
s(g3
g22
tp59
I30
s(g22
g3
tp60
I6
s(g3
g3
tp61
I44
s(g22
g6
tp62
I5
s(g3
g6
tp63
I41
s(g22
g22
tp64
I0
s(g4
g3
tp65
I3
s(g4
g4
tp66
I24
ss(I5
I6
tp67
(dp68
(g3
g4
tp69
I21
s(g4
g6
tp70
I134
s(g6
g6
tp71
I35
s(g6
g3
tp72
I156
s(g6
g4
tp73
I1
s(g3
g3
tp74
I97
s(g3
g6
tp75
I29
s(g4
g3
tp76
I437
s(g4
g4
tp77
I3
ss(I2
I8
tp78
(dp79
(g4
g22
tp80
I1
s(g3
g4
tp81
I711
s(g6
g22
tp82
I5
s(g4
g6
tp83
I1
s(g6
g6
tp84
I3
s(g6
g3
tp85
I9
s(g6
g4
tp86
I50
s(g22
g4
tp87
I0
s(g3
g22
tp88
I25
s(g22
g3
tp89
I0
s(g3
g3
tp90
I43
s(g22
g6
tp91
I0
s(g3
g6
tp92
I47
s(g22
g22
tp93
I0
s(g4
g3
tp94
I1
s(g4
g4
tp95
I24
ss(I7
I11
tp96
(dp97
(g3
g4
tp98
I186
s(g4
g6
tp99
I125
s(g6
g6
tp100
I1
s(g6
g3
tp101
I1
s(g6
g4
tp102
I10
s(g3
g3
tp103
I8
s(g3
g6
tp104
I37
s(g4
g3
tp105
I43
s(g4
g4
tp106
I509
ss(I3
I11
tp107
(dp108
(g3
g4
tp109
I573
s(g4
g6
tp110
I30
s(g3
g3
tp111
I44
s(g3
g6
tp112
I132
s(g4
g3
tp113
I7
s(g4
g4
tp114
I129
ss(I10
I12
tp115
(dp116
(g3
g4
tp117
I18
s(g4
g6
tp118
I217
s(g6
g6
tp119
I50
s(g6
g3
tp120
I14
s(g6
g4
tp121
I288
s(g3
g3
tp122
I9
s(g3
g6
tp123
I4
s(g4
g3
tp124
I19
s(g4
g4
tp125
I301
ss(I8
I9
tp126
(dp127
(g3
g4
tp128
I52
s(g4
g6
tp129
I0
s(g6
g6
tp130
I0
s(g6
g3
tp131
I0
s(g6
g4
tp132
I51
s(g22
g4
tp133
I31
s(g22
g3
tp134
I0
s(g3
g3
tp135
I0
s(g22
g6
tp136
I0
s(g3
g6
tp137
I0
s(g4
g3
tp138
I0
s(g4
g4
tp139
I785
ss(I4
I12
tp140
(dp141
(g3
g4
tp142
I521
s(g4
g6
tp143
I9
s(g6
g6
tp144
I0
s(g6
g3
tp145
I0
s(g6
g4
tp146
I0
s(g22
g4
tp147
I62
s(g22
g3
tp148
I7
s(g3
g3
tp149
I35
s(g22
g6
tp150
I29
s(g3
g6
tp151
I233
s(g4
g3
tp152
I0
s(g4
g4
tp153
I24
ss(I1
I6
tp154
(dp155
(g3
g4
tp156
I2
s(g4
g6
tp157
I16
s(g6
g6
tp158
I68
s(g6
g3
tp159
I232
s(g6
g4
tp160
I0
s(g3
g3
tp161
I408
s(g3
g6
tp162
I115
s(g4
g3
tp163
I52
s(g4
g4
tp164
I27
ss(I2
I12
tp165
(dp166
(g3
g4
tp167
I540
s(g4
g6
tp168
I7
s(g6
g6
tp169
I15
s(g6
g3
tp170
I4
s(g6
g4
tp171
I48
s(g22
g4
tp172
I0
s(g22
g3
tp173
I0
s(g3
g3
tp174
I37
s(g22
g6
tp175
I0
s(g3
g6
tp176
I249
s(g4
g3
tp177
I1
s(g4
g4
tp178
I19
ss(I6
I12
tp179
(dp180
(g3
g4
tp181
I439
s(g4
g6
tp182
I4
s(g6
g6
tp183
I44
s(g6
g3
tp184
I11
s(g6
g4
tp185
I144
s(g3
g3
tp186
I30
s(g3
g6
tp187
I223
s(g4
g3
tp188
I1
s(g4
g4
tp189
I24
ss(I3
I7
tp190
(dp191
(g3
g4
tp192
I588
s(g4
g6
tp193
I0
s(g3
g3
tp194
I153
s(g3
g6
tp195
I8
s(g4
g3
tp196
I77
s(g4
g4
tp197
I89
ss(I2
I5
tp198
(dp199
(g3
g4
tp200
I529
s(g4
g6
tp201
I6
s(g6
g6
tp202
I14
s(g6
g3
tp203
I22
s(g6
g4
tp204
I27
s(g22
g4
tp205
I0
s(g22
g3
tp206
I0
s(g3
g3
tp207
I122
s(g22
g6
tp208
I0
s(g3
g6
tp209
I172
s(g4
g3
tp210
I3
s(g4
g4
tp211
I18
ss(I1
I11
tp212
(dp213
(g3
g4
tp214
I400
s(g4
g6
tp215
I14
s(g6
g6
tp216
I54
s(g6
g3
tp217
I18
s(g6
g4
tp218
I228
s(g3
g3
tp219
I30
s(g3
g6
tp220
I95
s(g4
g3
tp221
I4
s(g4
g4
tp222
I77
ss(I5
I8
tp223
(dp224
(g4
g22
tp225
I22
s(g3
g4
tp226
I122
s(g6
g22
tp227
I4
s(g4
g6
tp228
I38
s(g6
g6
tp229
I7
s(g6
g3
tp230
I11
s(g6
g4
tp231
I170
s(g3
g22
tp232
I5
s(g3
g3
tp233
I14
s(g3
g6
tp234
I6
s(g4
g3
tp235
I27
s(g4
g4
tp236
I487
ss(I1
I2
tp237
(dp238
(g4
g22
tp239
I0
s(g3
g4
tp240
I17
s(g6
g22
tp241
I0
s(g4
g6
tp242
I24
s(g6
g6
tp243
I12
s(g6
g3
tp244
I279
s(g6
g4
tp245
I9
s(g3
g22
tp246
I0
s(g3
g3
tp247
I477
s(g3
g6
tp248
I31
s(g4
g3
tp249
I70
s(g4
g4
tp250
I1
ss(I4
I9
tp251
(dp252
(g3
g4
tp253
I788
s(g4
g6
tp254
I0
s(g6
g6
tp255
I0
s(g6
g3
tp256
I0
s(g6
g4
tp257
I0
s(g22
g4
tp258
I98
s(g22
g3
tp259
I0
s(g3
g3
tp260
I0
s(g22
g6
tp261
I0
s(g3
g6
tp262
I0
s(g4
g3
tp263
I0
s(g4
g4
tp264
I33
ss(I2
I9
tp265
(dp266
(g3
g4
tp267
I825
s(g4
g6
tp268
I0
s(g6
g6
tp269
I0
s(g6
g3
tp270
I0
s(g6
g4
tp271
I67
s(g22
g4
tp272
I0
s(g22
g3
tp273
I0
s(g3
g3
tp274
I0
s(g22
g6
tp275
I0
s(g3
g6
tp276
I0
s(g4
g3
tp277
I0
s(g4
g4
tp278
I27
ss(I3
I10
tp279
(dp280
(g3
g4
tp281
I459
s(g4
g6
tp282
I85
s(g3
g3
tp283
I28
s(g3
g6
tp284
I262
s(g4
g3
tp285
I3
s(g4
g4
tp286
I78
ss(I6
I10
tp287
(dp288
(g3
g4
tp289
I405
s(g4
g6
tp290
I27
s(g6
g6
tp291
I64
s(g6
g3
tp292
I5
s(g6
g4
tp293
I130
s(g3
g3
tp294
I26
s(g3
g6
tp295
I261
s(g4
g3
tp296
I0
s(g4
g4
tp297
I2
ss(I8
I10
tp298
(dp299
(g3
g4
tp300
I27
s(g4
g6
tp301
I301
s(g6
g6
tp302
I11
s(g6
g3
tp303
I2
s(g6
g4
tp304
I38
s(g22
g4
tp305
I14
s(g22
g3
tp306
I0
s(g3
g3
tp307
I3
s(g22
g6
tp308
I17
s(g3
g6
tp309
I23
s(g4
g3
tp310
I26
s(g4
g4
tp311
I458
ss(I5
I12
tp312
(dp313
(g3
g4
tp314
I113
s(g4
g6
tp315
I180
s(g6
g6
tp316
I60
s(g6
g3
tp317
I13
s(g6
g4
tp318
I119
s(g3
g3
tp319
I5
s(g3
g6
tp320
I29
s(g4
g3
tp321
I24
s(g4
g4
tp322
I370
ss(I1
I5
tp323
(dp324
(g3
g4
tp325
I355
s(g4
g6
tp326
I11
s(g6
g6
tp327
I70
s(g6
g3
tp328
I48
s(g6
g4
tp329
I182
s(g3
g3
tp330
I59
s(g3
g6
tp331
I111
s(g4
g3
tp332
I40
s(g4
g4
tp333
I37
ss(I9
I11
tp334
(dp335
(g3
g4
tp336
I0
s(g4
g6
tp337
I163
s(g6
g6
tp338
I0
s(g6
g3
tp339
I0
s(g6
g4
tp340
I0
s(g3
g3
tp341
I0
s(g3
g6
tp342
I0
s(g4
g3
tp343
I52
s(g4
g4
tp344
I704
ss(I3
I6
tp345
(dp346
(g3
g4
tp347
I19
s(g4
g6
tp348
I35
s(g3
g3
tp349
I566
s(g3
g6
tp350
I164
s(g4
g3
tp351
I125
s(g4
g4
tp352
I6
ss(I1
I10
tp353
(dp354
(g3
g4
tp355
I344
s(g4
g6
tp356
I66
s(g6
g6
tp357
I120
s(g6
g3
tp358
I15
s(g6
g4
tp359
I165
s(g3
g3
tp360
I15
s(g3
g6
tp361
I166
s(g4
g3
tp362
I1
s(g4
g4
tp363
I28
ss(I7
I9
tp364
(dp365
(g3
g4
tp366
I230
s(g4
g6
tp367
I0
s(g6
g6
tp368
I0
s(g6
g3
tp369
I0
s(g6
g4
tp370
I12
s(g3
g3
tp371
I0
s(g3
g6
tp372
I0
s(g4
g3
tp373
I0
s(g4
g4
tp374
I677
ss(I8
I11
tp375
(dp376
(g3
g4
tp377
I44
s(g4
g6
tp378
I140
s(g6
g6
tp379
I9
s(g6
g3
tp380
I1
s(g6
g4
tp381
I41
s(g22
g4
tp382
I23
s(g22
g3
tp383
I0
s(g3
g3
tp384
I3
s(g22
g6
tp385
I8
s(g3
g6
tp386
I6
s(g4
g3
tp387
I48
s(g4
g4
tp388
I597
ss(I4
I10
tp389
(dp390
(g3
g4
tp391
I456
s(g4
g6
tp392
I11
s(g6
g6
tp393
I0
s(g6
g3
tp394
I0
s(g6
g4
tp395
I0
s(g22
g4
tp396
I59
s(g22
g3
tp397
I8
s(g3
g3
tp398
I23
s(g22
g6
tp399
I31
s(g3
g6
tp400
I310
s(g4
g3
tp401
I0
s(g4
g4
tp402
I22
ss(I2
I6
tp403
(dp404
(g3
g4
tp405
I17
s(g4
g6
tp406
I10
s(g6
g6
tp407
I22
s(g6
g3
tp408
I34
s(g6
g4
tp409
I11
s(g22
g4
tp410
I0
s(g22
g3
tp411
I0
s(g3
g3
tp412
I642
s(g22
g6
tp413
I0
s(g3
g6
tp414
I167
s(g4
g3
tp415
I16
s(g4
g4
tp416
I1
ss(I7
I10
tp417
(dp418
(g3
g4
tp419
I118
s(g4
g6
tp420
I232
s(g6
g6
tp421
I11
s(g6
g3
tp422
I0
s(g6
g4
tp423
I1
s(g3
g3
tp424
I4
s(g3
g6
tp425
I109
s(g4
g3
tp426
I27
s(g4
g4
tp427
I418
ss(I5
I11
tp428
(dp429
(g3
g4
tp430
I113
s(g4
g6
tp431
I107
s(g6
g6
tp432
I29
s(g6
g3
tp433
I9
s(g6
g4
tp434
I154
s(g3
g3
tp435
I7
s(g3
g6
tp436
I27
s(g4
g3
tp437
I35
s(g4
g4
tp438
I432
ss(I4
I5
tp439
(dp440
(g3
g4
tp441
I487
s(g4
g6
tp442
I4
s(g6
g6
tp443
I0
s(g6
g3
tp444
I0
s(g6
g4
tp445
I0
s(g22
g4
tp446
I66
s(g22
g3
tp447
I11
s(g3
g3
tp448
I128
s(g22
g6
tp449
I21
s(g3
g6
tp450
I167
s(g4
g3
tp451
I8
s(g4
g4
tp452
I21
ss(I6
I7
tp453
(dp454
(g3
g4
tp455
I530
s(g4
g6
tp456
I7
s(g6
g6
tp457
I2
s(g6
g3
tp458
I55
s(g6
g4
tp459
I142
s(g3
g3
tp460
I159
s(g3
g6
tp461
I3
s(g4
g3
tp462
I17
s(g4
g4
tp463
I5
ss(I6
I11
tp464
(dp465
(g3
g4
tp466
I518
s(g4
g6
tp467
I3
s(g6
g6
tp468
I27
s(g6
g3
tp469
I8
s(g6
g4
tp470
I164
s(g3
g3
tp471
I41
s(g3
g6
tp472
I133
s(g4
g3
tp473
I3
s(g4
g4
tp474
I23
ss(I1
I4
tp475
(dp476
(g4
g22
tp477
I2
s(g3
g4
tp478
I14
s(g6
g22
tp479
I42
s(g4
g6
tp480
I0
s(g6
g6
tp481
I0
s(g6
g3
tp482
I244
s(g6
g4
tp483
I14
s(g3
g22
tp484
I54
s(g3
g3
tp485
I457
s(g3
g6
tp486
I0
s(g4
g3
tp487
I88
s(g4
g4
tp488
I5
ss(I2
I10
tp489
(dp490
(g3
g4
tp491
I485
s(g4
g6
tp492
I10
s(g6
g6
tp493
I31
s(g6
g3
tp494
I1
s(g6
g4
tp495
I35
s(g22
g4
tp496
I0
s(g22
g3
tp497
I0
s(g3
g3
tp498
I30
s(g22
g6
tp499
I0
s(g3
g6
tp500
I311
s(g4
g3
tp501
I0
s(g4
g4
tp502
I17
ss(I9
I10
tp503
(dp504
(g3
g4
tp505
I0
s(g4
g6
tp506
I351
s(g6
g6
tp507
I0
s(g6
g3
tp508
I0
s(g6
g4
tp509
I0
s(g3
g3
tp510
I0
s(g3
g6
tp511
I0
s(g4
g3
tp512
I31
s(g4
g4
tp513
I537
ss(I3
I9
tp514
(dp515
(g3
g4
tp516
I748
s(g4
g6
tp517
I0
s(g3
g3
tp518
I0
s(g3
g6
tp519
I0
s(g4
g3
tp520
I0
s(g4
g4
tp521
I166
ss(I2
I3
tp522
(dp523
(g3
g4
tp524
I142
s(g3
g3
tp525
I680
s(g6
g3
tp526
I50
s(g6
g4
tp527
I16
s(g22
g4
tp528
I0
s(g22
g3
tp529
I0
s(g4
g3
tp530
I19
s(g4
g4
tp531
I8
ss(I1
I9
tp532
(dp533
(g3
g4
tp534
I525
s(g4
g6
tp535
I0
s(g6
g6
tp536
I0
s(g6
g3
tp537
I0
s(g6
g4
tp538
I300
s(g3
g3
tp539
I0
s(g3
g6
tp540
I0
s(g4
g3
tp541
I0
s(g4
g4
tp542
I94
ss(I7
I12
tp543
(dp544
(g3
g4
tp545
I170
s(g4
g6
tp546
I213
s(g6
g6
tp547
I1
s(g6
g3
tp548
I1
s(g6
g4
tp549
I10
s(g3
g3
tp550
I4
s(g3
g6
tp551
I57
s(g4
g3
tp552
I37
s(g4
g4
tp553
I427
ss(I6
I8
tp554
(dp555
(g4
g22
tp556
I0
s(g3
g4
tp557
I606
s(g6
g22
tp558
I7
s(g4
g6
tp559
I0
s(g6
g6
tp560
I22
s(g6
g3
tp561
I16
s(g6
g4
tp562
I154
s(g3
g22
tp563
I24
s(g3
g3
tp564
I33
s(g3
g6
tp565
I29
s(g4
g3
tp566
I4
s(g4
g4
tp567
I25
ss(I5
I10
tp568
(dp569
(g3
g4
tp570
I66
s(g4
g6
tp571
I210
s(g6
g6
tp572
I58
s(g6
g3
tp573
I9
s(g6
g4
tp574
I125
s(g3
g3
tp575
I4
s(g3
g6
tp576
I77
s(g4
g3
tp577
I18
s(g4
g4
tp578
I346
ss(I11
I12
tp579
(dp580
(g3
g4
tp581
I25
s(g4
g6
tp582
I164
s(g6
g6
tp583
I91
s(g6
g3
tp584
I8
s(g6
g4
tp585
I64
s(g3
g3
tp586
I11
s(g3
g6
tp587
I16
s(g4
g3
tp588
I23
s(g4
g4
tp589
I518
ss(I4
I11
tp590
(dp591
(g3
g4
tp592
I598
s(g4
g6
tp593
I5
s(g6
g6
tp594
I0
s(g6
g3
tp595
I0
s(g6
g4
tp596
I0
s(g22
g4
tp597
I79
s(g22
g3
tp598
I4
s(g3
g3
tp599
I48
s(g22
g6
tp600
I15
s(g3
g6
tp601
I143
s(g4
g3
tp602
I0
s(g4
g4
tp603
I28
ss(I3
I5
tp604
(dp605
(g3
g4
tp606
I459
s(g4
g6
tp607
I22
s(g3
g3
tp608
I116
s(g3
g6
tp609
I170
s(g4
g3
tp610
I27
s(g4
g4
tp611
I115
ss(I2
I7
tp612
(dp613
(g3
g4
tp614
I631
s(g4
g6
tp615
I1
s(g6
g6
tp616
I5
s(g6
g3
tp617
I29
s(g6
g4
tp618
I33
s(g22
g4
tp619
I0
s(g22
g3
tp620
I0
s(g3
g3
tp621
I189
s(g22
g6
tp622
I0
s(g3
g6
tp623
I6
s(g4
g3
tp624
I13
s(g4
g4
tp625
I13
ss(I6
I9
tp626
(dp627
(g3
g4
tp628
I691
s(g4
g6
tp629
I0
s(g6
g6
tp630
I0
s(g6
g3
tp631
I0
s(g6
g4
tp632
I199
s(g3
g3
tp633
I0
s(g3
g6
tp634
I0
s(g4
g3
tp635
I0
s(g4
g4
tp636
I29
ss(I3
I12
tp637
(dp638
(g3
g4
tp639
I478
s(g4
g6
tp640
I38
s(g3
g3
tp641
I38
s(g3
g6
tp642
I233
s(g4
g3
tp643
I4
s(g4
g4
tp644
I124
ss(I4
I6
tp645
(dp646
(g3
g4
tp647
I27
s(g4
g6
tp648
I7
s(g6
g6
tp649
I0
s(g6
g3
tp650
I0
s(g6
g4
tp651
I0
s(g22
g4
tp652
I0
s(g22
g3
tp653
I71
s(g3
g3
tp654
I597
s(g22
g6
tp655
I27
s(g3
g6
tp656
I165
s(g4
g3
tp657
I24
s(g4
g4
tp658
I2
ss(I1
I12
tp659
(dp660
(g3
g4
tp661
I332
s(g4
g6
tp662
I21
s(g6
g6
tp663
I75
s(g6
g3
tp664
I19
s(g6
g4
tp665
I206
s(g3
g3
tp666
I18
s(g3
g6
tp667
I175
s(g4
g3
tp668
I5
s(g4
g4
tp669
I69
ss(I8
I12
tp670
(dp671
(g3
g4
tp672
I42
s(g4
g6
tp673
I241
s(g6
g6
tp674
I18
s(g6
g3
tp675
I0
s(g6
g4
tp676
I33
s(g22
g4
tp677
I27
s(g22
g3
tp678
I0
s(g3
g3
tp679
I3
s(g22
g6
tp680
I4
s(g3
g6
tp681
I8
s(g4
g3
tp682
I39
s(g4
g4
tp683
I505
ss(I7
I8
tp684
(dp685
(g4
g22
tp686
I13
s(g3
g4
tp687
I169
s(g6
g22
tp688
I0
s(g4
g6
tp689
I28
s(g6
g6
tp690
I0
s(g6
g3
tp691
I2
s(g6
g4
tp692
I10
s(g3
g22
tp693
I18
s(g3
g3
tp694
I21
s(g3
g6
tp695
I23
s(g4
g3
tp696
I30
s(g4
g4
tp697
I606
ss(I5
I7
tp698
(dp699
(g3
g4
tp700
I98
s(g4
g6
tp701
I1
s(g6
g6
tp702
I1
s(g6
g3
tp703
I33
s(g6
g4
tp704
I158
s(g3
g3
tp705
I42
s(g3
g6
tp706
I7
s(g4
g3
tp707
I152
s(g4
g4
tp708
I421
ss(I2
I11
tp709
(dp710
(g3
g4
tp711
I631
s(g4
g6
tp712
I9
s(g6
g6
tp713
I8
s(g6
g3
tp714
I3
s(g6
g4
tp715
I56
s(g22
g4
tp716
I0
s(g22
g3
tp717
I0
s(g3
g3
tp718
I49
s(g22
g6
tp719
I0
s(g3
g6
tp720
I146
s(g4
g3
tp721
I0
s(g4
g4
tp722
I18
ss(I3
I8
tp723
(dp724
(g4
g22
tp725
I25
s(g3
g4
tp726
I671
s(g4
g6
tp727
I15
s(g3
g22
tp728
I6
s(g3
g3
tp729
I36
s(g3
g6
tp730
I36
s(g4
g3
tp731
I16
s(g4
g4
tp732
I110
ss(I1
I8
tp733
(dp734
(g4
g22
tp735
I3
s(g3
g4
tp736
I445
s(g6
g22
tp737
I8
s(g4
g6
tp738
I5
s(g6
g6
tp739
I10
s(g6
g3
tp740
I20
s(g6
g4
tp741
I262
s(g3
g22
tp742
I20
s(g3
g3
tp743
I24
s(g3
g6
tp744
I36
s(g4
g3
tp745
I9
s(g4
g4
tp746
I78
ss(I1
I7
tp747
(dp748
(g3
g4
tp749
I411
s(g4
g6
tp750
I11
s(g6
g6
tp751
I1
s(g6
g3
tp752
I71
s(g6
g4
tp753
I228
s(g3
g3
tp754
I114
s(g3
g6
tp755
I0
s(g4
g3
tp756
I46
s(g4
g4
tp757
I38
ss(I3
I4
tp758
(dp759
(g4
g22
tp760
I0
s(g3
g4
tp761
I26
s(g4
g6
tp762
I0
s(g3
g22
tp763
I98
s(g3
g3
tp764
I625
s(g3
g6
tp765
I0
s(g4
g3
tp766
I159
s(g4
g4
tp767
I7
ss(I2
I4
tp768
(dp769
(g4
g22
tp770
I4
s(g3
g4
tp771
I29
s(g6
g22
tp772
I5
s(g4
g6
tp773
I0
s(g6
g6
tp774
I0
s(g6
g3
tp775
I59
s(g6
g4
tp776
I3
s(g22
g4
tp777
I0
s(g3
g22
tp778
I89
s(g22
g3
tp779
I0
s(g3
g3
tp780
I708
s(g22
g6
tp781
I0
s(g3
g6
tp782
I0
s(g22
g22
tp783
I0
s(g4
g3
tp784
I22
s(g4
g4
tp785
I1
ss(I9
I12
tp786
(dp787
(g3
g4
tp788
I0
s(g4
g6
tp789
I271
s(g6
g6
tp790
I0
s(g6
g3
tp791
I0
s(g6
g4
tp792
I0
s(g3
g3
tp793
I0
s(g3
g6
tp794
I0
s(g4
g3
tp795
I42
s(g4
g4
tp796
I606
ss.