(dp0
(I5
I9
tp1
(dp2
(S'1'
p3
S'0'
p4
tp5
I1199
s(g4
g3
tp6
I3
s(g3
g3
tp7
I268
s(g4
g4
tp8
I121
ss(I4
I7
tp9
(dp10
(g4
S'2'
p11
tp12
I9
s(g11
g11
tp13
I0
s(S'3'
p14
g4
tp15
I8
s(S'4'
p16
g3
tp17
I34
s(g14
g16
tp18
I1
s(g3
g11
tp19
I58
s(g16
g16
tp20
I0
s(g4
g14
tp21
I25
s(g11
g14
tp22
I4
s(g4
g16
tp23
I4
s(g14
g14
tp24
I27
s(g4
g4
tp25
I676
s(g11
g16
tp26
I0
s(g3
g3
tp27
I512
s(g11
g4
tp28
I0
s(g3
g16
tp29
I0
s(g16
g4
tp30
I1
s(g4
g3
tp31
I122
s(g16
g14
tp32
I20
s(g3
g4
tp33
I43
s(g11
g3
tp34
I4
s(g14
g3
tp35
I36
s(g14
g11
tp36
I2
s(g16
g11
tp37
I2
s(g3
g14
tp38
I213
ss(I1
I3
tp39
(dp40
(g4
g14
tp41
I2
s(g3
g4
tp42
I263
s(g11
g14
tp43
I0
s(g4
g11
tp44
I0
s(g11
g11
tp45
I0
s(g11
g3
tp46
I7
s(g11
g4
tp47
I18
s(g14
g4
tp48
I12
s(g3
g14
tp49
I3
s(g14
g3
tp50
I1
s(g3
g3
tp51
I483
s(g14
g11
tp52
I0
s(g3
g11
tp53
I43
s(g14
g14
tp54
I0
s(g4
g3
tp55
I25
s(g4
g4
tp56
I848
ss(I8
I13
tp57
(dp58
(g4
g14
tp59
I292
s(g4
g11
tp60
I29
s(g3
g14
tp61
I221
s(g4
g16
tp62
I213
s(g3
g3
tp63
I69
s(g3
g16
tp64
I180
s(g4
g3
tp65
I0
s(g3
g11
tp66
I380
ss(I4
I8
tp67
(dp68
(g3
g4
tp69
I408
s(g3
g3
tp70
I379
s(g11
g3
tp71
I3
s(g11
g4
tp72
I5
s(g14
g4
tp73
I44
s(g14
g3
tp74
I25
s(g16
g3
tp75
I17
s(g16
g4
tp76
I40
s(g4
g3
tp77
I420
s(g4
g4
tp78
I13
ss(I5
I6
tp79
(dp80
(g4
g14
tp81
I0
s(g3
g4
tp82
I779
s(g4
g11
tp83
I13
s(g3
g14
tp84
I7
s(g3
g3
tp85
I668
s(g3
g11
tp86
I7
s(g4
g3
tp87
I14
s(g4
g4
tp88
I95
ss(I2
I8
tp89
(dp90
(g3
g4
tp91
I330
s(g3
g3
tp92
I334
s(g11
g3
tp93
I14
s(g11
g4
tp94
I20
s(g14
g4
tp95
I1
s(g14
g3
tp96
I8
s(g16
g3
tp97
I16
s(g16
g4
tp98
I76
s(g4
g3
tp99
I477
s(g4
g4
tp100
I107
ss(I7
I11
tp101
(dp102
(g3
g4
tp103
I666
s(g4
g11
tp104
I141
s(g11
g11
tp105
I9
s(g11
g3
tp106
I1
s(g11
g4
tp107
I62
s(g14
g4
tp108
I291
s(g14
g3
tp109
I3
s(g3
g3
tp110
I7
s(g14
g11
tp111
I15
s(g3
g11
tp112
I44
s(g16
g4
tp113
I3
s(g4
g3
tp114
I6
s(g4
g4
tp115
I581
s(g16
g3
tp116
I0
s(g16
g11
tp117
I2
ss(I3
I11
tp118
(dp119
(g3
g4
tp120
I431
s(g4
g11
tp121
I104
s(g11
g11
tp122
I10
s(g11
g3
tp123
I1
s(g11
g4
tp124
I32
s(g14
g4
tp125
I5
s(g14
g3
tp126
I0
s(g3
g3
tp127
I4
s(g14
g11
tp128
I0
s(g3
g11
tp129
I81
s(g4
g3
tp130
I11
s(g4
g4
tp131
I1032
ss(I10
I12
tp132
(dp133
(g3
g4
tp134
I15
s(g4
g11
tp135
I236
s(g11
g11
tp136
I9
s(g11
g3
tp137
I0
s(g11
g4
tp138
I210
s(g3
g3
tp139
I2
s(g3
g11
tp140
I3
s(g4
g3
tp141
I21
s(g4
g4
tp142
I1335
ss(I8
I9
tp143
(dp144
(g3
g4
tp145
I689
s(g4
g3
tp146
I2
s(g3
g3
tp147
I161
s(g4
g4
tp148
I532
ss(I4
I12
tp149
(dp150
(g3
g4
tp151
I660
s(g4
g11
tp152
I73
s(g11
g11
tp153
I1
s(g11
g3
tp154
I0
s(g11
g4
tp155
I7
s(g14
g4
tp156
I64
s(g14
g3
tp157
I0
s(g3
g3
tp158
I13
s(g14
g11
tp159
I10
s(g3
g11
tp160
I153
s(g16
g4
tp161
I45
s(g4
g3
tp162
I7
s(g4
g4
tp163
I756
s(g16
g3
tp164
I3
s(g16
g11
tp165
I9
ss(I1
I6
tp166
(dp167
(g4
g14
tp168
I6
s(g3
g4
tp169
I114
s(g11
g14
tp170
I0
s(g4
g11
tp171
I14
s(g11
g11
tp172
I6
s(g11
g3
tp173
I4
s(g11
g4
tp174
I15
s(g14
g4
tp175
I10
s(g3
g14
tp176
I0
s(g14
g3
tp177
I2
s(g3
g3
tp178
I798
s(g14
g11
tp179
I0
s(g3
g11
tp180
I0
s(g14
g14
tp181
I1
s(g4
g3
tp182
I75
s(g4
g4
tp183
I772
ss(I2
I12
tp184
(dp185
(g3
g4
tp186
I551
s(g4
g11
tp187
I103
s(g11
g11
tp188
I6
s(g11
g3
tp189
I0
s(g11
g4
tp190
I46
s(g14
g4
tp191
I28
s(g14
g3
tp192
I0
s(g3
g3
tp193
I15
s(g14
g11
tp194
I1
s(g3
g11
tp195
I126
s(g16
g4
tp196
I84
s(g4
g3
tp197
I8
s(g4
g4
tp198
I849
s(g16
g3
tp199
I0
s(g16
g11
tp200
I12
ss(I6
I12
tp201
(dp202
(g3
g4
tp203
I786
s(g4
g11
tp204
I148
s(g11
g11
tp205
I5
s(g11
g3
tp206
I0
s(g11
g4
tp207
I15
s(g14
g4
tp208
I6
s(g14
g3
tp209
I0
s(g3
g3
tp210
I7
s(g14
g11
tp211
I1
s(g3
g11
tp212
I86
s(g4
g3
tp213
I16
s(g4
g4
tp214
I753
ss(I3
I7
tp215
(dp216
(g4
g14
tp217
I265
s(g3
g4
tp218
I408
s(g11
g14
tp219
I0
s(g4
g11
tp220
I63
s(g11
g11
tp221
I0
s(g14
g3
tp222
I2
s(g11
g3
tp223
I3
s(g11
g4
tp224
I40
s(g14
g4
tp225
I1
s(g3
g14
tp226
I28
s(g4
g16
tp227
I3
s(g3
g3
tp228
I75
s(g3
g16
tp229
I0
s(g14
g16
tp230
I0
s(g3
g11
tp231
I5
s(g14
g14
tp232
I2
s(g14
g11
tp233
I0
s(g4
g3
tp234
I607
s(g4
g4
tp235
I209
s(g11
g16
tp236
I0
ss(I2
I5
tp237
(dp238
(g3
g4
tp239
I83
s(g3
g3
tp240
I598
s(g11
g3
tp241
I34
s(g11
g4
tp242
I6
s(g14
g4
tp243
I0
s(g14
g3
tp244
I16
s(g16
g3
tp245
I83
s(g16
g4
tp246
I10
s(g4
g3
tp247
I736
s(g4
g4
tp248
I25
ss(I1
I11
tp249
(dp250
(g3
g4
tp251
I738
s(g4
g11
tp252
I44
s(g11
g11
tp253
I2
s(g11
g3
tp254
I0
s(g11
g4
tp255
I23
s(g14
g4
tp256
I13
s(g14
g3
tp257
I0
s(g3
g3
tp258
I9
s(g14
g11
tp259
I0
s(g3
g11
tp260
I165
s(g4
g3
tp261
I8
s(g4
g4
tp262
I823
ss(I5
I8
tp263
(dp264
(g3
g4
tp265
I470
s(g4
g3
tp266
I55
s(g3
g3
tp267
I697
s(g4
g4
tp268
I63
ss(I1
I2
tp269
(dp270
(g4
g14
tp271
I0
s(g3
g4
tp272
I784
s(g11
g14
tp273
I0
s(g4
g11
tp274
I23
s(g11
g11
tp275
I0
s(g14
g3
tp276
I1
s(g11
g3
tp277
I1
s(g11
g4
tp278
I2
s(g14
g4
tp279
I0
s(g3
g14
tp280
I28
s(g4
g16
tp281
I29
s(g3
g3
tp282
I35
s(g3
g16
tp283
I34
s(g14
g16
tp284
I11
s(g3
g11
tp285
I29
s(g14
g14
tp286
I1
s(g14
g11
tp287
I0
s(g4
g3
tp288
I651
s(g4
g4
tp289
I172
s(g11
g16
tp290
I22
ss(I4
I9
tp291
(dp292
(g3
g4
tp293
I815
s(g3
g3
tp294
I11
s(g11
g3
tp295
I0
s(g11
g4
tp296
I8
s(g14
g4
tp297
I73
s(g14
g3
tp298
I1
s(g16
g3
tp299
I0
s(g16
g4
tp300
I57
s(g4
g3
tp301
I320
s(g4
g4
tp302
I516
ss(I5
I13
tp303
(dp304
(g4
g14
tp305
I49
s(g4
g11
tp306
I11
s(g3
g14
tp307
I464
s(g4
g16
tp308
I63
s(g3
g3
tp309
I119
s(g3
g16
tp310
I330
s(g4
g3
tp311
I1
s(g3
g11
tp312
I554
ss(I2
I9
tp313
(dp314
(g3
g4
tp315
I682
s(g3
g3
tp316
I10
s(g11
g3
tp317
I4
s(g11
g4
tp318
I48
s(g14
g4
tp319
I17
s(g14
g3
tp320
I12
s(g16
g3
tp321
I2
s(g16
g4
tp322
I94
s(g4
g3
tp323
I304
s(g4
g4
tp324
I656
ss(I12
I13
tp325
(dp326
(g4
g14
tp327
I413
s(g11
g14
tp328
I93
s(g4
g11
tp329
I676
s(g11
g11
tp330
I66
s(g11
g3
tp331
I23
s(g3
g14
tp332
I7
s(g4
g16
tp333
I318
s(g3
g3
tp334
I2
s(g3
g16
tp335
I9
s(g4
g3
tp336
I153
s(g3
g11
tp337
I5
s(g11
g16
tp338
I66
ss(I3
I10
tp339
(dp340
(g3
g4
tp341
I506
s(g4
g11
tp342
I209
s(g11
g11
tp343
I0
s(g11
g3
tp344
I0
s(g11
g4
tp345
I43
s(g14
g4
tp346
I5
s(g14
g3
tp347
I0
s(g3
g3
tp348
I0
s(g14
g11
tp349
I0
s(g3
g11
tp350
I10
s(g4
g3
tp351
I20
s(g4
g4
tp352
I918
ss(I5
I11
tp353
(dp354
(g3
g4
tp355
I1288
s(g4
g11
tp356
I8
s(g3
g3
tp357
I13
s(g3
g11
tp358
I166
s(g4
g3
tp359
I2
s(g4
g4
tp360
I114
ss(I8
I10
tp361
(dp362
(g3
g4
tp363
I777
s(g4
g11
tp364
I159
s(g3
g3
tp365
I13
s(g3
g11
tp366
I60
s(g4
g3
tp367
I7
s(g4
g4
tp368
I368
ss(I5
I12
tp369
(dp370
(g3
g4
tp371
I1240
s(g4
g11
tp372
I18
s(g3
g3
tp373
I19
s(g3
g11
tp374
I208
s(g4
g3
tp375
I3
s(g4
g4
tp376
I103
ss(I4
I13
tp377
(dp378
(g4
g14
tp379
I6
s(g16
g16
tp380
I26
s(g11
g14
tp381
I3
s(g4
g11
tp382
I654
s(g11
g11
tp383
I0
s(g14
g3
tp384
I4
s(g11
g3
tp385
I0
s(g3
g14
tp386
I416
s(g4
g16
tp387
I14
s(g3
g3
tp388
I12
s(g3
g16
tp389
I316
s(g14
g16
tp390
I25
s(g16
g3
tp391
I0
s(g14
g14
tp392
I41
s(g14
g11
tp393
I4
s(g4
g3
tp394
I162
s(g16
g11
tp395
I4
s(g16
g14
tp396
I27
s(g3
g11
tp397
I82
s(g11
g16
tp398
I5
ss(I1
I5
tp399
(dp400
(g3
g4
tp401
I14
s(g3
g3
tp402
I658
s(g11
g3
tp403
I24
s(g11
g4
tp404
I1
s(g14
g4
tp405
I1
s(g14
g3
tp406
I12
s(g4
g3
tp407
I767
s(g4
g4
tp408
I108
ss(I2
I13
tp409
(dp410
(g4
g14
tp411
I83
s(g16
g16
tp412
I31
s(g11
g14
tp413
I13
s(g4
g11
tp414
I644
s(g11
g11
tp415
I29
s(g14
g3
tp416
I6
s(g11
g3
tp417
I4
s(g3
g14
tp418
I361
s(g4
g16
tp419
I78
s(g3
g3
tp420
I10
s(g3
g16
tp421
I278
s(g14
g16
tp422
I0
s(g16
g3
tp423
I1
s(g14
g14
tp424
I1
s(g14
g11
tp425
I22
s(g4
g3
tp426
I155
s(g16
g11
tp427
I9
s(g16
g14
tp428
I55
s(g3
g11
tp429
I43
s(g11
g16
tp430
I6
ss(I9
I11
tp431
(dp432
(g3
g4
tp433
I268
s(g4
g11
tp434
I150
s(g3
g3
tp435
I3
s(g3
g11
tp436
I61
s(g4
g3
tp437
I14
s(g4
g4
tp438
I1335
ss(I3
I6
tp439
(dp440
(g4
g14
tp441
I7
s(g3
g4
tp442
I61
s(g11
g14
tp443
I0
s(g4
g11
tp444
I19
s(g11
g11
tp445
I0
s(g11
g3
tp446
I37
s(g11
g4
tp447
I6
s(g14
g4
tp448
I2
s(g3
g14
tp449
I0
s(g14
g3
tp450
I3
s(g3
g3
tp451
I454
s(g14
g11
tp452
I0
s(g3
g11
tp453
I1
s(g14
g14
tp454
I0
s(g4
g3
tp455
I282
s(g4
g4
tp456
I831
ss(I1
I10
tp457
(dp458
(g3
g4
tp459
I903
s(g4
g11
tp460
I202
s(g11
g11
tp461
I5
s(g11
g3
tp462
I2
s(g11
g4
tp463
I18
s(g14
g4
tp464
I10
s(g14
g3
tp465
I1
s(g3
g3
tp466
I0
s(g14
g11
tp467
I2
s(g3
g11
tp468
I9
s(g4
g3
tp469
I17
s(g4
g4
tp470
I656
ss(I7
I9
tp471
(dp472
(g3
g4
tp473
I698
s(g3
g3
tp474
I19
s(g11
g3
tp475
I3
s(g11
g4
tp476
I69
s(g14
g4
tp477
I288
s(g14
g3
tp478
I21
s(g16
g3
tp479
I1
s(g16
g4
tp480
I4
s(g4
g3
tp481
I288
s(g4
g4
tp482
I440
ss(I8
I11
tp483
(dp484
(g3
g4
tp485
I725
s(g4
g11
tp486
I20
s(g3
g3
tp487
I11
s(g3
g11
tp488
I114
s(g4
g3
tp489
I1
s(g4
g4
tp490
I513
ss(I11
I13
tp491
(dp492
(g4
g14
tp493
I485
s(g11
g14
tp494
I25
s(g4
g11
tp495
I629
s(g11
g11
tp496
I111
s(g11
g3
tp497
I54
s(g3
g14
tp498
I3
s(g4
g16
tp499
I368
s(g3
g3
tp500
I3
s(g3
g16
tp501
I4
s(g4
g3
tp502
I121
s(g3
g11
tp503
I7
s(g11
g16
tp504
I21
ss(I4
I10
tp505
(dp506
(g3
g4
tp507
I636
s(g4
g11
tp508
I6
s(g11
g11
tp509
I4
s(g11
g3
tp510
I0
s(g11
g4
tp511
I4
s(g14
g4
tp512
I58
s(g14
g3
tp513
I1
s(g3
g3
tp514
I18
s(g14
g11
tp515
I15
s(g3
g11
tp516
I172
s(g16
g4
tp517
I45
s(g4
g3
tp518
I1
s(g4
g4
tp519
I829
s(g16
g3
tp520
I0
s(g16
g11
tp521
I12
ss(I2
I6
tp522
(dp523
(g4
g14
tp524
I0
s(g3
g4
tp525
I579
s(g11
g14
tp526
I1
s(g4
g11
tp527
I2
s(g11
g11
tp528
I0
s(g11
g3
tp529
I25
s(g11
g4
tp530
I26
s(g14
g4
tp531
I5
s(g3
g14
tp532
I4
s(g14
g3
tp533
I24
s(g3
g3
tp534
I90
s(g14
g11
tp535
I0
s(g3
g11
tp536
I15
s(g14
g14
tp537
I0
s(g16
g4
tp538
I73
s(g4
g3
tp539
I721
s(g16
g14
tp540
I2
s(g4
g4
tp541
I233
s(g16
g3
tp542
I18
s(g16
g11
tp543
I3
ss(I7
I10
tp544
(dp545
(g3
g4
tp546
I568
s(g4
g11
tp547
I5
s(g11
g11
tp548
I9
s(g11
g3
tp549
I2
s(g11
g4
tp550
I61
s(g14
g4
tp551
I235
s(g14
g3
tp552
I7
s(g3
g3
tp553
I11
s(g14
g11
tp554
I67
s(g3
g11
tp555
I138
s(g16
g4
tp556
I5
s(g4
g3
tp557
I0
s(g4
g4
tp558
I723
s(g16
g3
tp559
I0
s(g16
g11
tp560
I0
ss(I3
I13
tp561
(dp562
(g4
g14
tp563
I492
s(g11
g14
tp564
I0
s(g4
g11
tp565
I194
s(g11
g11
tp566
I33
s(g14
g3
tp567
I0
s(g11
g3
tp568
I10
s(g3
g14
tp569
I21
s(g4
g16
tp570
I379
s(g3
g3
tp571
I63
s(g3
g16
tp572
I12
s(g14
g16
tp573
I2
s(g14
g14
tp574
I0
s(g14
g11
tp575
I3
s(g4
g3
tp576
I82
s(g3
g11
tp577
I420
s(g11
g16
tp578
I0
ss(I4
I5
tp579
(dp580
(g3
g4
tp581
I76
s(g3
g3
tp582
I696
s(g11
g3
tp583
I8
s(g11
g4
tp584
I0
s(g14
g4
tp585
I10
s(g14
g3
tp586
I59
s(g16
g3
tp587
I35
s(g16
g4
tp588
I22
s(g4
g3
tp589
I640
s(g4
g4
tp590
I15
ss(I1
I13
tp591
(dp592
(g4
g14
tp593
I470
s(g11
g14
tp594
I17
s(g4
g11
tp595
I42
s(g11
g11
tp596
I3
s(g14
g3
tp597
I0
s(g11
g3
tp598
I0
s(g3
g14
tp599
I17
s(g4
g16
tp600
I363
s(g3
g3
tp601
I178
s(g3
g16
tp602
I17
s(g14
g16
tp603
I2
s(g14
g14
tp604
I9
s(g14
g11
tp605
I2
s(g4
g3
tp606
I0
s(g3
g11
tp607
I700
s(g11
g16
tp608
I5
ss(I6
I7
tp609
(dp610
(g4
g14
tp611
I167
s(g3
g4
tp612
I649
s(g11
g14
tp613
I20
s(g4
g11
tp614
I67
s(g11
g11
tp615
I0
s(g14
g3
tp616
I0
s(g11
g3
tp617
I0
s(g11
g4
tp618
I0
s(g14
g4
tp619
I0
s(g3
g14
tp620
I111
s(g4
g16
tp621
I2
s(g3
g3
tp622
I111
s(g3
g16
tp623
I3
s(g14
g16
tp624
I0
s(g3
g11
tp625
I5
s(g14
g14
tp626
I7
s(g14
g11
tp627
I0
s(g4
g3
tp628
I602
s(g4
g4
tp629
I79
s(g11
g16
tp630
I0
ss(I7
I13
tp631
(dp632
(g4
g14
tp633
I3
s(g16
g16
tp634
I0
s(g11
g14
tp635
I33
s(g4
g11
tp636
I578
s(g11
g11
tp637
I11
s(g14
g3
tp638
I5
s(g11
g3
tp639
I1
s(g3
g14
tp640
I316
s(g4
g16
tp641
I6
s(g3
g3
tp642
I28
s(g3
g16
tp643
I247
s(g14
g16
tp644
I113
s(g16
g3
tp645
I3
s(g14
g14
tp646
I161
s(g14
g11
tp647
I30
s(g4
g3
tp648
I141
s(g16
g11
tp649
I2
s(g16
g14
tp650
I0
s(g3
g11
tp651
I126
s(g11
g16
tp652
I27
ss(I6
I11
tp653
(dp654
(g3
g4
tp655
I725
s(g4
g11
tp656
I59
s(g11
g11
tp657
I0
s(g11
g3
tp658
I1
s(g11
g4
tp659
I19
s(g14
g4
tp660
I6
s(g14
g3
tp661
I0
s(g3
g3
tp662
I9
s(g14
g11
tp663
I1
s(g3
g11
tp664
I145
s(g4
g3
tp665
I7
s(g4
g4
tp666
I851
ss(I1
I4
tp667
(dp668
(g4
g14
tp669
I59
s(g3
g4
tp670
I818
s(g11
g14
tp671
I5
s(g4
g11
tp672
I8
s(g11
g11
tp673
I0
s(g14
g3
tp674
I11
s(g11
g3
tp675
I12
s(g11
g4
tp676
I0
s(g14
g4
tp677
I0
s(g3
g14
tp678
I9
s(g4
g16
tp679
I54
s(g3
g3
tp680
I81
s(g3
g16
tp681
I2
s(g14
g16
tp682
I0
s(g3
g11
tp683
I0
s(g14
g14
tp684
I1
s(g14
g11
tp685
I0
s(g4
g3
tp686
I716
s(g4
g4
tp687
I18
s(g11
g16
tp688
I1
ss(I2
I10
tp689
(dp690
(g3
g4
tp691
I528
s(g4
g11
tp692
I35
s(g11
g11
tp693
I7
s(g11
g3
tp694
I1
s(g11
g4
tp695
I44
s(g14
g4
tp696
I29
s(g14
g3
tp697
I0
s(g3
g3
tp698
I12
s(g14
g11
tp699
I0
s(g3
g11
tp700
I152
s(g16
g4
tp701
I70
s(g4
g3
tp702
I6
s(g4
g4
tp703
I919
s(g16
g3
tp704
I1
s(g16
g11
tp705
I25
ss(I9
I10
tp706
(dp707
(g3
g4
tp708
I332
s(g4
g11
tp709
I219
s(g3
g3
tp710
I0
s(g3
g11
tp711
I0
s(g4
g3
tp712
I20
s(g4
g4
tp713
I1260
ss(I3
I9
tp714
(dp715
(g3
g4
tp716
I306
s(g3
g3
tp717
I210
s(g11
g3
tp718
I27
s(g11
g4
tp719
I16
s(g14
g4
tp720
I4
s(g14
g3
tp721
I1
s(g4
g3
tp722
I63
s(g4
g4
tp723
I1084
ss(I2
I3
tp724
(dp725
(g4
g14
tp726
I3
s(g3
g4
tp727
I646
s(g11
g14
tp728
I0
s(g4
g11
tp729
I43
s(g11
g11
tp730
I0
s(g11
g3
tp731
I0
s(g11
g4
tp732
I24
s(g14
g4
tp733
I1
s(g3
g14
tp734
I2
s(g14
g3
tp735
I1
s(g3
g3
tp736
I13
s(g14
g11
tp737
I0
s(g3
g11
tp738
I0
s(g14
g14
tp739
I0
s(g16
g4
tp740
I79
s(g4
g3
tp741
I487
s(g16
g14
tp742
I0
s(g4
g4
tp743
I397
s(g16
g3
tp744
I13
s(g16
g11
tp745
I0
ss(I1
I9
tp746
(dp747
(g3
g4
tp748
I580
s(g3
g3
tp749
I332
s(g11
g3
tp750
I0
s(g11
g4
tp751
I25
s(g14
g4
tp752
I13
s(g14
g3
tp753
I0
s(g4
g3
tp754
I0
s(g4
g4
tp755
I875
ss(I7
I12
tp756
(dp757
(g3
g4
tp758
I579
s(g4
g11
tp759
I57
s(g11
g11
tp760
I15
s(g11
g3
tp761
I2
s(g11
g4
tp762
I55
s(g14
g4
tp763
I258
s(g14
g3
tp764
I3
s(g3
g3
tp765
I13
s(g14
g11
tp766
I48
s(g3
g11
tp767
I125
s(g16
g4
tp768
I2
s(g4
g3
tp769
I5
s(g4
g4
tp770
I666
s(g16
g3
tp771
I0
s(g16
g11
tp772
I3
ss(I6
I8
tp773
(dp774
(g3
g4
tp775
I57
s(g3
g3
tp776
I436
s(g11
g3
tp777
I20
s(g11
g4
tp778
I0
s(g14
g4
tp779
I1
s(g14
g3
tp780
I6
s(g4
g3
tp781
I388
s(g4
g4
tp782
I468
ss(I5
I10
tp783
(dp784
(g3
g4
tp785
I1259
s(g4
g11
tp786
I30
s(g3
g3
tp787
I19
s(g3
g11
tp788
I189
s(g4
g3
tp789
I1
s(g4
g4
tp790
I93
ss(I11
I12
tp791
(dp792
(g3
g4
tp793
I10
s(g4
g11
tp794
I179
s(g11
g11
tp795
I64
s(g11
g3
tp796
I2
s(g11
g4
tp797
I145
s(g3
g3
tp798
I2
s(g3
g11
tp799
I5
s(g4
g3
tp800
I19
s(g4
g4
tp801
I1405
ss(I4
I11
tp802
(dp803
(g3
g4
tp804
I773
s(g4
g11
tp805
I157
s(g11
g11
tp806
I1
s(g11
g3
tp807
I0
s(g11
g4
tp808
I7
s(g14
g4
tp809
I68
s(g14
g3
tp810
I2
s(g3
g3
tp811
I6
s(g14
g11
tp812
I4
s(g3
g11
tp813
I47
s(g16
g4
tp814
I55
s(g4
g3
tp815
I9
s(g4
g4
tp816
I670
s(g16
g3
tp817
I0
s(g16
g11
tp818
I2
ss(I3
I5
tp819
(dp820
(g3
g4
tp821
I5
s(g3
g3
tp822
I413
s(g11
g3
tp823
I32
s(g11
g4
tp824
I0
s(g14
g4
tp825
I2
s(g14
g3
tp826
I0
s(g4
g3
tp827
I953
s(g4
g4
tp828
I114
ss(I2
I7
tp829
(dp830
(g4
g11
tp831
I15
s(g11
g11
tp832
I5
s(g14
g4
tp833
I11
s(g16
g3
tp834
I39
s(g14
g16
tp835
I0
s(g3
g11
tp836
I51
s(g16
g16
tp837
I2
s(g4
g14
tp838
I64
s(g11
g14
tp839
I7
s(g4
g16
tp840
I3
s(g14
g14
tp841
I12
s(g4
g4
tp842
I681
s(g11
g16
tp843
I0
s(g3
g3
tp844
I451
s(g11
g4
tp845
I17
s(g3
g16
tp846
I0
s(g16
g4
tp847
I3
s(g4
g3
tp848
I197
s(g16
g14
tp849
I51
s(g3
g4
tp850
I15
s(g11
g3
tp851
I23
s(g14
g3
tp852
I6
s(g14
g11
tp853
I0
s(g16
g11
tp854
I1
s(g3
g14
tp855
I175
ss(I9
I13
tp856
(dp857
(g4
g14
tp858
I513
s(g4
g11
tp859
I476
s(g3
g14
tp860
I0
s(g4
g16
tp861
I391
s(g3
g3
tp862
I59
s(g3
g16
tp863
I2
s(g4
g3
tp864
I119
s(g3
g11
tp865
I271
ss(I6
I9
tp866
(dp867
(g3
g4
tp868
I576
s(g3
g3
tp869
I303
s(g11
g3
tp870
I0
s(g11
g4
tp871
I20
s(g14
g4
tp872
I7
s(g14
g3
tp873
I0
s(g4
g3
tp874
I29
s(g4
g4
tp875
I888
ss(I3
I12
tp876
(dp877
(g3
g4
tp878
I467
s(g4
g11
tp879
I192
s(g11
g11
tp880
I3
s(g11
g3
tp881
I0
s(g11
g4
tp882
I40
s(g14
g4
tp883
I5
s(g14
g3
tp884
I0
s(g3
g3
tp885
I4
s(g14
g11
tp886
I0
s(g3
g11
tp887
I45
s(g4
g3
tp888
I19
s(g4
g4
tp889
I936
ss(I4
I6
tp890
(dp891
(g4
g14
tp892
I0
s(g3
g4
tp893
I665
s(g11
g14
tp894
I1
s(g4
g11
tp895
I0
s(g11
g11
tp896
I0
s(g11
g3
tp897
I0
s(g11
g4
tp898
I7
s(g14
g4
tp899
I64
s(g3
g14
tp900
I4
s(g14
g3
tp901
I6
s(g3
g3
tp902
I132
s(g14
g11
tp903
I0
s(g3
g11
tp904
I19
s(g14
g14
tp905
I2
s(g16
g4
tp906
I57
s(g4
g3
tp907
I735
s(g16
g14
tp908
I0
s(g4
g4
tp909
I101
s(g16
g3
tp910
I0
s(g16
g11
tp911
I0
ss(I1
I12
tp912
(dp913
(g3
g4
tp914
I825
s(g4
g11
tp915
I162
s(g11
g11
tp916
I3
s(g11
g3
tp917
I0
s(g11
g4
tp918
I22
s(g14
g4
tp919
I11
s(g14
g3
tp920
I0
s(g3
g3
tp921
I6
s(g14
g11
tp922
I2
s(g3
g11
tp923
I81
s(g4
g3
tp924
I16
s(g4
g4
tp925
I697
ss(I8
I12
tp926
(dp927
(g3
g4
tp928
I688
s(g4
g11
tp929
I61
s(g3
g3
tp930
I18
s(g3
g11
tp931
I144
s(g4
g3
tp932
I1
s(g4
g4
tp933
I472
ss(I7
I8
tp934
(dp935
(g3
g4
tp936
I334
s(g3
g3
tp937
I256
s(g11
g3
tp938
I65
s(g11
g4
tp939
I2
s(g14
g4
tp940
I193
s(g14
g3
tp941
I93
s(g16
g3
tp942
I1
s(g16
g4
tp943
I0
s(g4
g3
tp944
I435
s(g4
g4
tp945
I5
ss(I6
I10
tp946
(dp947
(g3
g4
tp948
I861
s(g4
g11
tp949
I196
s(g11
g11
tp950
I3
s(g11
g3
tp951
I2
s(g11
g4
tp952
I15
s(g14
g4
tp953
I5
s(g14
g3
tp954
I1
s(g3
g3
tp955
I1
s(g14
g11
tp956
I1
s(g3
g11
tp957
I17
s(g4
g3
tp958
I14
s(g4
g4
tp959
I707
ss(I5
I7
tp960
(dp961
(g4
g14
tp962
I49
s(g3
g4
tp963
I532
s(g4
g11
tp964
I7
s(g3
g14
tp965
I258
s(g4
g16
tp966
I0
s(g3
g3
tp967
I612
s(g3
g16
tp968
I3
s(g3
g11
tp969
I62
s(g4
g3
tp970
I58
s(g4
g4
tp971
I10
ss(I2
I11
tp972
(dp973
(g3
g4
tp974
I646
s(g4
g11
tp975
I160
s(g11
g11
tp976
I4
s(g11
g3
tp977
I1
s(g11
g4
tp978
I47
s(g14
g4
tp979
I25
s(g14
g3
tp980
I0
s(g3
g3
tp981
I8
s(g14
g11
tp982
I4
s(g3
g11
tp983
I38
s(g16
g4
tp984
I91
s(g4
g3
tp985
I8
s(g4
g4
tp986
I792
s(g16
g3
tp987
I0
s(g16
g11
tp988
I5
ss(I3
I8
tp989
(dp990
(g3
g4
tp991
I27
s(g3
g3
tp992
I273
s(g11
g3
tp993
I10
s(g11
g4
tp994
I0
s(g14
g4
tp995
I2
s(g14
g3
tp996
I1
s(g4
g3
tp997
I524
s(g4
g4
tp998
I505
ss(I1
I8
tp999
(dp1000
(g3
g4
tp1001
I28
s(g3
g3
tp1002
I438
s(g11
g3
tp1003
I8
s(g11
g4
tp1004
I17
s(g14
g4
tp1005
I10
s(g14
g3
tp1006
I3
s(g4
g3
tp1007
I398
s(g4
g4
tp1008
I476
ss(I10
I13
tp1009
(dp1010
(g4
g14
tp1011
I381
s(g11
g14
tp1012
I127
s(g4
g11
tp1013
I743
s(g11
g11
tp1014
I3
s(g11
g3
tp1015
I0
s(g3
g14
tp1016
I5
s(g4
g16
tp1017
I290
s(g3
g3
tp1018
I0
s(g3
g16
tp1019
I14
s(g4
g3
tp1020
I178
s(g3
g11
tp1021
I1
s(g11
g16
tp1022
I89
ss(I6
I13
tp1023
(dp1024
(g4
g14
tp1025
I442
s(g11
g14
tp1026
I18
s(g4
g11
tp1027
I102
s(g11
g11
tp1028
I0
s(g14
g3
tp1029
I0
s(g11
g3
tp1030
I0
s(g3
g14
tp1031
I46
s(g4
g16
tp1032
I341
s(g3
g3
tp1033
I146
s(g3
g16
tp1034
I43
s(g14
g16
tp1035
I3
s(g14
g14
tp1036
I3
s(g14
g11
tp1037
I1
s(g4
g3
tp1038
I32
s(g3
g11
tp1039
I644
s(g11
g16
tp1040
I2
ss(I1
I7
tp1041
(dp1042
(g4
g14
tp1043
I244
s(g3
g4
tp1044
I719
s(g11
g14
tp1045
I15
s(g4
g11
tp1046
I65
s(g11
g11
tp1047
I0
s(g14
g3
tp1048
I7
s(g11
g3
tp1049
I8
s(g11
g4
tp1050
I2
s(g14
g4
tp1051
I0
s(g3
g14
tp1052
I43
s(g4
g16
tp1053
I0
s(g3
g3
tp1054
I138
s(g3
g16
tp1055
I5
s(g14
g16
tp1056
I0
s(g3
g11
tp1057
I7
s(g14
g14
tp1058
I6
s(g14
g11
tp1059
I0
s(g4
g3
tp1060
I559
s(g4
g4
tp1061
I7
s(g11
g16
tp1062
I0
ss(I10
I11
tp1063
(dp1064
(g3
g4
tp1065
I15
s(g4
g11
tp1066
I191
s(g11
g11
tp1067
I17
s(g11
g3
tp1068
I1
s(g11
g4
tp1069
I201
s(g3
g3
tp1070
I2
s(g3
g11
tp1071
I3
s(g4
g3
tp1072
I14
s(g4
g4
tp1073
I1387
ss(I3
I4
tp1074
(dp1075
(g4
g14
tp1076
I71
s(g3
g4
tp1077
I463
s(g11
g14
tp1078
I0
s(g4
g11
tp1079
I8
s(g11
g11
tp1080
I0
s(g14
g3
tp1081
I0
s(g11
g3
tp1082
I1
s(g11
g4
tp1083
I42
s(g14
g4
tp1084
I3
s(g3
g14
tp1085
I0
s(g4
g16
tp1086
I55
s(g3
g3
tp1087
I24
s(g3
g16
tp1088
I0
s(g14
g16
tp1089
I2
s(g3
g11
tp1090
I0
s(g14
g14
tp1091
I0
s(g14
g11
tp1092
I0
s(g4
g3
tp1093
I781
s(g4
g4
tp1094
I231
s(g11
g16
tp1095
I0
ss(I2
I4
tp1096
(dp1097
(g4
g11
tp1098
I0
s(g11
g11
tp1099
I1
s(g14
g4
tp1100
I21
s(g16
g3
tp1101
I51
s(g14
g16
tp1102
I0
s(g3
g11
tp1103
I3
s(g16
g16
tp1104
I8
s(g4
g14
tp1105
I16
s(g11
g14
tp1106
I0
s(g4
g16
tp1107
I14
s(g14
g14
tp1108
I0
s(g4
g4
tp1109
I753
s(g11
g16
tp1110
I2
s(g3
g3
tp1111
I567
s(g11
g4
tp1112
I21
s(g3
g16
tp1113
I33
s(g16
g4
tp1114
I6
s(g4
g3
tp1115
I172
s(g16
g14
tp1116
I14
s(g3
g4
tp1117
I33
s(g11
g3
tp1118
I28
s(g14
g3
tp1119
I8
s(g14
g11
tp1120
I0
s(g16
g11
tp1121
I4
s(g3
g14
tp1122
I44
ss(I9
I12
tp1123
(dp1124
(g3
g4
tp1125
I311
s(g4
g11
tp1126
I229
s(g3
g3
tp1127
I2
s(g3
g11
tp1128
I19
s(g4
g3
tp1129
I21
s(g4
g4
tp1130
I1249
ss.